
out/sboot.elf:     file format elf32-littlearm


Disassembly of section .text1:

00000000 <_vector>:
   0:	ea000006 	b	20 <Boot_Entry>

00000004 <_undefined_instruction>:
   4:	eafffffe 	b	4 <_undefined_instruction>

00000008 <_software_interrupt>:
   8:	eafffffe 	b	8 <_software_interrupt>

0000000c <_prefetch_abort>:
   c:	eafffffe 	b	c <_prefetch_abort>

00000010 <_data_abort>:
  10:	eafffffe 	b	10 <_data_abort>

00000014 <_not_used>:
  14:	eafffffe 	b	14 <_not_used>

00000018 <_irq>:
  18:	eafffffe 	b	18 <_irq>

0000001c <_fiq>:
  1c:	eafffffe 	b	1c <_fiq>

00000020 <Boot_Entry>:
  20:	00000b02 	.word	0x00000b02
  24:	eb000d0a 	bl	3454 <BootRom_InitTimer>
  28:	e59fcbd0 	ldr	ip, [pc, #3024]	; c00 <SIZE_BOOT_RESERVED>
  2c:	e59c8000 	ldr	r8, [ip]
  30:	e3c88a01 	bic	r8, r8, #4096	; 0x1000
  34:	e59fcbc4 	ldr	ip, [pc, #3012]	; c00 <SIZE_BOOT_RESERVED>
  38:	e58c8000 	str	r8, [ip]
  3c:	e59fcbc0 	ldr	ip, [pc, #3008]	; c04 <SIZE_BOOT_RESERVED+0x4>
  40:	e59c3000 	ldr	r3, [ip]
  44:	e3a0403f 	mov	r4, #63	; 0x3f
  48:	e1833004 	orr	r3, r3, r4
  4c:	e59fcbb0 	ldr	ip, [pc, #2992]	; c04 <SIZE_BOOT_RESERVED+0x4>
  50:	e58c3000 	str	r3, [ip]

00000054 <Boot_Start>:
  54:	e59fcbac 	ldr	ip, [pc, #2988]	; c08 <SIZE_BOOT_RESERVED+0x8>
  58:	e3a0b000 	mov	fp, #0
  5c:	e58cb000 	str	fp, [ip]
  60:	e59fcba4 	ldr	ip, [pc, #2980]	; c0c <SIZE_BOOT_RESERVED+0xc>
  64:	e3a0b000 	mov	fp, #0
  68:	e58cb000 	str	fp, [ip]
  6c:	e59fcb9c 	ldr	ip, [pc, #2972]	; c10 <SIZE_BOOT_RESERVED+0x10>
  70:	e59fbb9c 	ldr	fp, [pc, #2972]	; c14 <SIZE_BOOT_RESERVED+0x14>
  74:	e58cb100 	str	fp, [ip, #256]	; 0x100
  78:	e59fcb98 	ldr	ip, [pc, #2968]	; c18 <SIZE_BOOT_RESERVED+0x18>
  7c:	e59fbb98 	ldr	fp, [pc, #2968]	; c1c <SIZE_BOOT_RESERVED+0x1c>
  80:	e58cb000 	str	fp, [ip]
  84:	eb000014 	bl	dc <Boot_InitCpuRegister>
  88:	e59fcb80 	ldr	ip, [pc, #2944]	; c10 <SIZE_BOOT_RESERVED+0x10>
  8c:	e3a0b000 	mov	fp, #0
  90:	e58cb100 	str	fp, [ip, #256]	; 0x100
  94:	ee100fb0 	mrc	15, 0, r0, cr0, cr0, {5}
  98:	e2000003 	and	r0, r0, #3
  9c:	e3500000 	cmp	r0, #0
  a0:	0a000000 	beq	a8 <Boot_PrimaryCore>
  a4:	eb000000 	bl	ac <Boot_SecondaryCore>

000000a8 <Boot_PrimaryCore>:
  a8:	e59ffb70 	ldr	pc, [pc, #2928]	; c20 <SIZE_BOOT_RESERVED+0x20>

000000ac <Boot_SecondaryCore>:
  ac:	e59fcb70 	ldr	ip, [pc, #2928]	; c24 <SIZE_BOOT_RESERVED+0x24>
  b0:	e3a0b0f0 	mov	fp, #240	; 0xf0
  b4:	e58cb000 	str	fp, [ip]
  b8:	e59fcb68 	ldr	ip, [pc, #2920]	; c28 <SIZE_BOOT_RESERVED+0x28>
  bc:	e3a0b001 	mov	fp, #1
  c0:	e58cb000 	str	fp, [ip]
  c4:	e59fcb60 	ldr	ip, [pc, #2912]	; c2c <SIZE_BOOT_RESERVED+0x2c>
  c8:	e3a0b0ff 	mov	fp, #255	; 0xff
  cc:	e58cb000 	str	fp, [ip]
  d0:	e320f003 	wfi
  d4:	e59ffb54 	ldr	pc, [pc, #2900]	; c30 <SIZE_BOOT_RESERVED+0x30>

000000d8 <Boot_SecondaryCoreLoop>:
  d8:	eafffffe 	b	d8 <Boot_SecondaryCoreLoop>

000000dc <Boot_InitCpuRegister>:
  dc:	e10f0000 	mrs	r0, CPSR
  e0:	e38000c0 	orr	r0, r0, #192	; 0xc0
  e4:	e38000d3 	orr	r0, r0, #211	; 0xd3
  e8:	e121f000 	msr	CPSR_c, r0
  ec:	ee110f10 	mrc	15, 0, r0, cr1, cr0, {0}
  f0:	e3c00001 	bic	r0, r0, #1
  f4:	e3c00004 	bic	r0, r0, #4
  f8:	e3c00a01 	bic	r0, r0, #4096	; 0x1000
  fc:	ee010f10 	mcr	15, 0, r0, cr1, cr0, {0}
 100:	e12fff1e 	bx	lr
	...
 b00:	a075afc2 	.word	0xa075afc2
 b04:	cc0e9000 	.word	0xcc0e9000
 b08:	90f07774 	.word	0x90f07774
 b0c:	7774cd0e 	.word	0x7774cd0e
 b10:	ce0e90f0 	.word	0xce0e90f0
 b14:	90f07774 	.word	0x90f07774
 b18:	7774cf0e 	.word	0x7774cf0e
 b1c:	753771f0 	.word	0x753771f0
 b20:	1e9010a0 	.word	0x1e9010a0
 b24:	ef54e003 	.word	0xef54e003
 b28:	00a075f0 	.word	0x00a075f0
 b2c:	74530e90 	.word	0x74530e90
 b30:	e074f0b0 	.word	0xe074f0b0
 b34:	75fe80f0 	.word	0x75fe80f0
 b38:	0e9000a0 	.word	0x0e9000a0
 b3c:	0754e0c2 	.word	0x0754e0c2
 b40:	22f407b4 	.word	0x22f407b4
	...
 c00:	1f005ca4 	.word	0x1f005ca4
 c04:	1f001ca4 	.word	0x1f001ca4
 c08:	1f006010 	.word	0x1f006010
 c0c:	1f006014 	.word	0x1f006014
 c10:	1f206600 	.word	0x1f206600
 c14:	00003697 	.word	0x00003697
 c18:	1f203a44 	.word	0x1f203a44
 c1c:	0000ffff 	.word	0x0000ffff
 c20:	00002154 	.word	0x00002154
 c24:	16000104 	.word	0x16000104
 c28:	16000100 	.word	0x16000100
 c2c:	1f206744 	.word	0x1f206744
 c30:	200000b0 	.word	0x200000b0
	...

Disassembly of section .text2:

00002000 <MDrv_WriteRegTbl32>:
    2000:	e3a0c000 	mov	ip, #0
    2004:	e3a04000 	mov	r4, #0
    2008:	e3a0a000 	mov	sl, #0
    200c:	e3e0b4ff 	mvn	fp, #-16777216	; 0xff000000
    2010:	e3a0941f 	mov	r9, #520093696	; 0x1f000000

00002014 <START_LOOP>:
    2014:	e5d01000 	ldrb	r1, [r0]
    2018:	e1a01801 	lsl	r1, r1, #16
    201c:	e5d02001 	ldrb	r2, [r0, #1]
    2020:	e1a02402 	lsl	r2, r2, #8
    2024:	e5d03002 	ldrb	r3, [r0, #2]
    2028:	e0811002 	add	r1, r1, r2
    202c:	e0811003 	add	r1, r1, r3
    2030:	e151000b 	cmp	r1, fp
    2034:	0a00000e 	beq	2074 <L_END_TABLE>
    2038:	e3c1460e 	bic	r4, r1, #14680064	; 0xe00000
    203c:	e1a0aaa1 	lsr	sl, r1, #21
    2040:	e084c00a 	add	ip, r4, sl
    2044:	e2800003 	add	r0, r0, #3

00002048 <WRITE_LOOP>:
    2048:	e1a05084 	lsl	r5, r4, #1
    204c:	e2046001 	and	r6, r4, #1
    2050:	e0855009 	add	r5, r5, r9
    2054:	e0455006 	sub	r5, r5, r6
    2058:	e5d07000 	ldrb	r7, [r0]
    205c:	e2800001 	add	r0, r0, #1
    2060:	e5c57000 	strb	r7, [r5]
    2064:	e15c0004 	cmp	ip, r4
    2068:	0affffe9 	beq	2014 <START_LOOP>
    206c:	e2844001 	add	r4, r4, #1
    2070:	eafffff4 	b	2048 <WRITE_LOOP>

00002074 <L_END_TABLE>:
    2074:	e12fff1e 	bx	lr

00002078 <MDrv_WriteRegMaskTbl>:
    2078:	e59f80a4 	ldr	r8, [pc, #164]	; 2124 <L_FINISH+0x4>
    207c:	e59f90a4 	ldr	r9, [pc, #164]	; 2128 <L_FINISH+0x8>
    2080:	e3a0a000 	mov	sl, #0
    2084:	e3a0b000 	mov	fp, #0
    2088:	e3a0c000 	mov	ip, #0

0000208c <L_WHILE_LOOP>:
    208c:	e5d02000 	ldrb	r2, [r0]
    2090:	e5d03001 	ldrb	r3, [r0, #1]
    2094:	e1a02402 	lsl	r2, r2, #8
    2098:	e0822003 	add	r2, r2, r3
    209c:	e1520008 	cmp	r2, r8
    20a0:	0a00001e 	beq	2120 <L_FINISH>
    20a4:	e2800002 	add	r0, r0, #2
    20a8:	e3520000 	cmp	r2, #0
    20ac:	1a000008 	bne	20d4 <L_NORMAL>
    20b0:	e5d02000 	ldrb	r2, [r0]
    20b4:	e3520000 	cmp	r2, #0
    20b8:	1a000002 	bne	20c8 <SET_RIUBASE_NONPM>
    20bc:	e3a0941f 	mov	r9, #520093696	; 0x1f000000
    20c0:	e2800002 	add	r0, r0, #2
    20c4:	eafffff0 	b	208c <L_WHILE_LOOP>

000020c8 <SET_RIUBASE_NONPM>:
    20c8:	e59f9058 	ldr	r9, [pc, #88]	; 2128 <L_FINISH+0x8>
    20cc:	e2800002 	add	r0, r0, #2
    20d0:	eaffffed 	b	208c <L_WHILE_LOOP>

000020d4 <L_NORMAL>:
    20d4:	e3c2b903 	bic	fp, r2, #49152	; 0xc000
    20d8:	e1a0a722 	lsr	sl, r2, #14
    20dc:	e08bc00a 	add	ip, fp, sl

000020e0 <L_WRITE_LOOP>:
    20e0:	e1a0408b 	lsl	r4, fp, #1
    20e4:	e20b5001 	and	r5, fp, #1
    20e8:	e0844009 	add	r4, r4, r9
    20ec:	e0444005 	sub	r4, r4, r5
    20f0:	e5d06001 	ldrb	r6, [r0, #1]
    20f4:	e5d07000 	ldrb	r7, [r0]
    20f8:	e5d41000 	ldrb	r1, [r4]
    20fc:	e1c11006 	bic	r1, r1, r6
    2100:	e0066007 	and	r6, r6, r7
    2104:	e1811006 	orr	r1, r1, r6
    2108:	e5c41000 	strb	r1, [r4]
    210c:	e2800002 	add	r0, r0, #2
    2110:	e15b000c 	cmp	fp, ip
    2114:	0affffdc 	beq	208c <L_WHILE_LOOP>
    2118:	e28bb001 	add	fp, fp, #1
    211c:	eaffffef 	b	20e0 <L_WRITE_LOOP>

00002120 <L_FINISH>:
    2120:	e12fff1e 	bx	lr
    2124:	0000ffff 	.word	0x0000ffff
    2128:	1f200000 	.word	0x1f200000

0000212c <BOOT_MESSAGE_AC_ON>:
    212c:	000a000d 	.word	0x000a000d
    2130:	00430041 	.word	0x00430041
    2134:	004f005f 	.word	0x004f005f
    2138:	000d004e 	.word	0x000d004e
    213c:	0000000a 	.word	0x0000000a

00002140 <BOOT_MESSAGE_DC_ON>:
    2140:	000a000d 	.word	0x000a000d
    2144:	00430044 	.word	0x00430044
    2148:	004f005f 	.word	0x004f005f
    214c:	000d004e 	.word	0x000d004e
    2150:	0000000a 	.word	0x0000000a

00002154 <BootRom_Entry>:
    2154:	e59fc1e8 	ldr	ip, [pc, #488]	; 2344 <BootRom_WriteUartString_Exit+0x4>
    2158:	e3a0b001 	mov	fp, #1
    215c:	e58cb100 	str	fp, [ip, #256]	; 0x100
    2160:	e59f01e0 	ldr	r0, [pc, #480]	; 2348 <BootRom_WriteUartString_Exit+0x8>
    2164:	e280000a 	add	r0, r0, #10
    2168:	ebffffc2 	bl	2078 <MDrv_WriteRegMaskTbl>
    216c:	eb000092 	bl	23bc <BootRom_InitPll>
    2170:	eb000019 	bl	21dc <BootRom_PostInitPll>
    2174:	eb000270 	bl	2b3c <BootRom_InitClock>
    2178:	eb0003af 	bl	303c <BootRom_InitPeripheral>
    217c:	e59fc1c8 	ldr	ip, [pc, #456]	; 234c <BootRom_WriteUartString_Exit+0xc>
    2180:	e59c0000 	ldr	r0, [ip]
    2184:	e38000ff 	orr	r0, r0, #255	; 0xff
    2188:	e59f11c0 	ldr	r1, [pc, #448]	; 2350 <BootRom_WriteUartString_Exit+0x10>
    218c:	e1500001 	cmp	r0, r1
    2190:	0a000005 	beq	21ac <BootRom_Str_AcFlow>
    2194:	e59f01b8 	ldr	r0, [pc, #440]	; 2354 <BootRom_WriteUartString_Exit+0x14>
    2198:	e1a0100e 	mov	r1, lr
    219c:	eb00005c 	bl	2314 <BootRom_WriteUartString>
    21a0:	e1a0e001 	mov	lr, r1
    21a4:	ea000004 	b	21bc <BootRom_Str_InitMiu>
    21a8:	ea000005 	b	21c4 <BootRom_Str_Exit>

000021ac <BootRom_Str_AcFlow>:
    21ac:	e59f01a4 	ldr	r0, [pc, #420]	; 2358 <BootRom_WriteUartString_Exit+0x18>
    21b0:	e1a0100e 	mov	r1, lr
    21b4:	eb000056 	bl	2314 <BootRom_WriteUartString>
    21b8:	e1a0e001 	mov	lr, r1

000021bc <BootRom_Str_InitMiu>:
    21bc:	eb00051f 	bl	3640 <BootRom_InitMiu>
    21c0:	eb00074b 	bl	3ef4 <BootRom_SetL3Clock>

000021c4 <BootRom_Str_Exit>:
    21c4:	eb00003e 	bl	22c4 <BootRom_LoadBootRam>
    21c8:	e59fc174 	ldr	ip, [pc, #372]	; 2344 <BootRom_WriteUartString_Exit+0x4>
    21cc:	e3a0b003 	mov	fp, #3
    21d0:	e58cb100 	str	fp, [ip, #256]	; 0x100
    21d4:	e59ff180 	ldr	pc, [pc, #384]	; 235c <BootRom_WriteUartString_Exit+0x1c>

000021d8 <BootRom_DummyLoop>:
    21d8:	eafffffe 	b	21d8 <BootRom_DummyLoop>

000021dc <BootRom_PostInitPll>:
    21dc:	e59fc17c 	ldr	ip, [pc, #380]	; 2360 <BootRom_WriteUartString_Exit+0x20>
    21e0:	e3a0b000 	mov	fp, #0
    21e4:	e58cb000 	str	fp, [ip]
    21e8:	e59fc174 	ldr	ip, [pc, #372]	; 2364 <BootRom_WriteUartString_Exit+0x24>
    21ec:	e3a0b000 	mov	fp, #0
    21f0:	e58cb000 	str	fp, [ip]
    21f4:	e59fc16c 	ldr	ip, [pc, #364]	; 2368 <BootRom_WriteUartString_Exit+0x28>
    21f8:	e3a0b000 	mov	fp, #0
    21fc:	e58cb000 	str	fp, [ip]
    2200:	e59fc164 	ldr	ip, [pc, #356]	; 236c <BootRom_WriteUartString_Exit+0x2c>
    2204:	e3a0b000 	mov	fp, #0
    2208:	e58cb000 	str	fp, [ip]
    220c:	e59fc15c 	ldr	ip, [pc, #348]	; 2370 <BootRom_WriteUartString_Exit+0x30>
    2210:	e3a0b901 	mov	fp, #16384	; 0x4000
    2214:	e58cb000 	str	fp, [ip]
    2218:	e59fc154 	ldr	ip, [pc, #340]	; 2374 <BootRom_WriteUartString_Exit+0x34>
    221c:	e3a0ba03 	mov	fp, #12288	; 0x3000
    2220:	e58cb000 	str	fp, [ip]
    2224:	e59fc14c 	ldr	ip, [pc, #332]	; 2378 <BootRom_WriteUartString_Exit+0x38>
    2228:	e3a0b000 	mov	fp, #0
    222c:	e58cb000 	str	fp, [ip]
    2230:	e59fc144 	ldr	ip, [pc, #324]	; 237c <BootRom_WriteUartString_Exit+0x3c>
    2234:	e3a0b000 	mov	fp, #0
    2238:	e58cb000 	str	fp, [ip]
    223c:	e59fc13c 	ldr	ip, [pc, #316]	; 2380 <BootRom_WriteUartString_Exit+0x40>
    2240:	e3a0b000 	mov	fp, #0
    2244:	e58cb000 	str	fp, [ip]
    2248:	e59fc134 	ldr	ip, [pc, #308]	; 2384 <BootRom_WriteUartString_Exit+0x44>
    224c:	e3a0b901 	mov	fp, #16384	; 0x4000
    2250:	e58cb000 	str	fp, [ip]
    2254:	e59fc12c 	ldr	ip, [pc, #300]	; 2388 <BootRom_WriteUartString_Exit+0x48>
    2258:	e3a0ba03 	mov	fp, #12288	; 0x3000
    225c:	e58cb000 	str	fp, [ip]
    2260:	e59fc124 	ldr	ip, [pc, #292]	; 238c <BootRom_WriteUartString_Exit+0x4c>
    2264:	e3a0b000 	mov	fp, #0
    2268:	e58cb000 	str	fp, [ip]
    226c:	e59fc11c 	ldr	ip, [pc, #284]	; 2390 <BootRom_WriteUartString_Exit+0x50>
    2270:	e3a0b000 	mov	fp, #0
    2274:	e58cb000 	str	fp, [ip]
    2278:	e59fc114 	ldr	ip, [pc, #276]	; 2394 <BootRom_WriteUartString_Exit+0x54>
    227c:	e3a0b000 	mov	fp, #0
    2280:	e58cb000 	str	fp, [ip]
    2284:	e59fc10c 	ldr	ip, [pc, #268]	; 2398 <BootRom_WriteUartString_Exit+0x58>
    2288:	e3a0b901 	mov	fp, #16384	; 0x4000
    228c:	e58cb000 	str	fp, [ip]
    2290:	e59fc104 	ldr	ip, [pc, #260]	; 239c <BootRom_WriteUartString_Exit+0x5c>
    2294:	e3a0ba03 	mov	fp, #12288	; 0x3000
    2298:	e58cb000 	str	fp, [ip]
    229c:	e59fc0fc 	ldr	ip, [pc, #252]	; 23a0 <BootRom_WriteUartString_Exit+0x60>
    22a0:	e3a0b000 	mov	fp, #0
    22a4:	e58cb000 	str	fp, [ip]
    22a8:	e59fc0f4 	ldr	ip, [pc, #244]	; 23a4 <BootRom_WriteUartString_Exit+0x64>
    22ac:	e3a0b000 	mov	fp, #0
    22b0:	e58cb000 	str	fp, [ip]
    22b4:	e59fc0ec 	ldr	ip, [pc, #236]	; 23a8 <BootRom_WriteUartString_Exit+0x68>
    22b8:	e3a0b000 	mov	fp, #0
    22bc:	e58cb000 	str	fp, [ip]
    22c0:	e12fff1e 	bx	lr

000022c4 <BootRom_LoadBootRam>:
    22c4:	e59fa0e0 	ldr	sl, [pc, #224]	; 23ac <BootRom_WriteUartString_Exit+0x6c>
    22c8:	e59fb0e0 	ldr	fp, [pc, #224]	; 23b0 <BootRom_WriteUartString_Exit+0x70>
    22cc:	e59fc0e0 	ldr	ip, [pc, #224]	; 23b4 <BootRom_WriteUartString_Exit+0x74>
    22d0:	e59f90d8 	ldr	r9, [pc, #216]	; 23b0 <BootRom_WriteUartString_Exit+0x70>
    22d4:	e04cc009 	sub	ip, ip, r9

000022d8 <_CopyDataLoop>:
    22d8:	e49a9004 	ldr	r9, [sl], #4
    22dc:	e48b9004 	str	r9, [fp], #4
    22e0:	e25cc004 	subs	ip, ip, #4
    22e4:	1afffffb 	bne	22d8 <_CopyDataLoop>
    22e8:	e12fff1e 	bx	lr
    22ec:	e59fc050 	ldr	ip, [pc, #80]	; 2344 <BootRom_WriteUartString_Exit+0x4>
    22f0:	e3a0b00f 	mov	fp, #15
    22f4:	e58cb100 	str	fp, [ip, #256]	; 0x100

000022f8 <BootRom_WriteUartCharactor>:
    22f8:	e59fc0b8 	ldr	ip, [pc, #184]	; 23b8 <BootRom_WriteUartString_Exit+0x78>
    22fc:	e58c0100 	str	r0, [ip, #256]	; 0x100

00002300 <BootRom_WriteUartCharactor_Loop>:
    2300:	e59c0128 	ldr	r0, [ip, #296]	; 0x128
    2304:	e2000060 	and	r0, r0, #96	; 0x60
    2308:	e3500060 	cmp	r0, #96	; 0x60
    230c:	1afffffb 	bne	2300 <BootRom_WriteUartCharactor_Loop>
    2310:	e12fff1e 	bx	lr

00002314 <BootRom_WriteUartString>:
    2314:	e4d0b002 	ldrb	fp, [r0], #2
    2318:	e20bb0ff 	and	fp, fp, #255	; 0xff
    231c:	e35b0000 	cmp	fp, #0
    2320:	0a000006 	beq	2340 <BootRom_WriteUartString_Exit>
    2324:	e59fc08c 	ldr	ip, [pc, #140]	; 23b8 <BootRom_WriteUartString_Exit+0x78>
    2328:	e58cb100 	str	fp, [ip, #256]	; 0x100

0000232c <BootRom_WriteUartString_Loop>:
    232c:	e59cb128 	ldr	fp, [ip, #296]	; 0x128
    2330:	e20bb060 	and	fp, fp, #96	; 0x60
    2334:	e35b0060 	cmp	fp, #96	; 0x60
    2338:	1afffffb 	bne	232c <BootRom_WriteUartString_Loop>
    233c:	eafffff4 	b	2314 <BootRom_WriteUartString>

00002340 <BootRom_WriteUartString_Exit>:
    2340:	e12fff1e 	bx	lr
    2344:	1f206600 	.word	0x1f206600
    2348:	00004395 	.word	0x00004395
    234c:	1f001ce0 	.word	0x1f001ce0
    2350:	0000ffff 	.word	0x0000ffff
    2354:	00002140 	.word	0x00002140
    2358:	0000212c 	.word	0x0000212c
    235c:	20000000 	.word	0x20000000
    2360:	1f221218 	.word	0x1f221218
    2364:	1f221380 	.word	0x1f221380
    2368:	1f2213a4 	.word	0x1f2213a4
    236c:	1f22120c 	.word	0x1f22120c
    2370:	1f22139c 	.word	0x1f22139c
    2374:	1f221394 	.word	0x1f221394
    2378:	1f2213fc 	.word	0x1f2213fc
    237c:	1f226418 	.word	0x1f226418
    2380:	1f226580 	.word	0x1f226580
    2384:	1f22659c 	.word	0x1f22659c
    2388:	1f226594 	.word	0x1f226594
    238c:	1f2265d0 	.word	0x1f2265d0
    2390:	1f226818 	.word	0x1f226818
    2394:	1f226980 	.word	0x1f226980
    2398:	1f22699c 	.word	0x1f22699c
    239c:	1f226994 	.word	0x1f226994
    23a0:	1f2269d0 	.word	0x1f2269d0
    23a4:	1f001d28 	.word	0x1f001d28
    23a8:	1f001d2c 	.word	0x1f001d2c
    23ac:	000043c0 	.word	0x000043c0
    23b0:	20000000 	.word	0x20000000
    23b4:	200055b0 	.word	0x200055b0
    23b8:	1f201200 	.word	0x1f201200

000023bc <BootRom_InitPll>:
    23bc:	e59fc628 	ldr	ip, [pc, #1576]	; 29ec <DELAYUS_104+0x1c>
    23c0:	e3a0b03f 	mov	fp, #63	; 0x3f
    23c4:	e5ccb000 	strb	fp, [ip]
    23c8:	e59fc61c 	ldr	ip, [pc, #1564]	; 29ec <DELAYUS_104+0x1c>
    23cc:	e3a0b000 	mov	fp, #0
    23d0:	e5ccb000 	strb	fp, [ip]
    23d4:	e59fc614 	ldr	ip, [pc, #1556]	; 29f0 <DELAYUS_104+0x20>
    23d8:	e3a0b000 	mov	fp, #0
    23dc:	e58cb000 	str	fp, [ip]
    23e0:	e59fc60c 	ldr	ip, [pc, #1548]	; 29f4 <DELAYUS_104+0x24>
    23e4:	e3a0b000 	mov	fp, #0
    23e8:	e58cb000 	str	fp, [ip]
    23ec:	e59fc604 	ldr	ip, [pc, #1540]	; 29f8 <DELAYUS_104+0x28>
    23f0:	e3a0b000 	mov	fp, #0
    23f4:	e58cb000 	str	fp, [ip]
    23f8:	e59fc5fc 	ldr	ip, [pc, #1532]	; 29fc <DELAYUS_104+0x2c>
    23fc:	e3a0b000 	mov	fp, #0
    2400:	e58cb000 	str	fp, [ip]
    2404:	e59fc5f4 	ldr	ip, [pc, #1524]	; 2a00 <DELAYUS_104+0x30>
    2408:	e3a0b000 	mov	fp, #0
    240c:	e58cb000 	str	fp, [ip]
    2410:	e59fc5ec 	ldr	ip, [pc, #1516]	; 2a04 <DELAYUS_104+0x34>
    2414:	e3a0b030 	mov	fp, #48	; 0x30
    2418:	e58cb000 	str	fp, [ip]
    241c:	e59fc5e4 	ldr	ip, [pc, #1508]	; 2a08 <DELAYUS_104+0x38>
    2420:	e3a0b008 	mov	fp, #8
    2424:	e5ccb000 	strb	fp, [ip]
    2428:	e59fc5dc 	ldr	ip, [pc, #1500]	; 2a0c <DELAYUS_104+0x3c>
    242c:	e3a0b008 	mov	fp, #8
    2430:	e5ccb000 	strb	fp, [ip]
    2434:	e59fc5d4 	ldr	ip, [pc, #1492]	; 2a10 <DELAYUS_104+0x40>
    2438:	e3a0b000 	mov	fp, #0
    243c:	e5ccb000 	strb	fp, [ip]
    2440:	e59fc5cc 	ldr	ip, [pc, #1484]	; 2a14 <DELAYUS_104+0x44>
    2444:	e3a0b000 	mov	fp, #0
    2448:	e5ccb000 	strb	fp, [ip]
    244c:	e59fc5c4 	ldr	ip, [pc, #1476]	; 2a18 <DELAYUS_104+0x48>
    2450:	e59fb5c4 	ldr	fp, [pc, #1476]	; 2a1c <DELAYUS_104+0x4c>
    2454:	e58cb000 	str	fp, [ip]
    2458:	e59fc5c0 	ldr	ip, [pc, #1472]	; 2a20 <DELAYUS_104+0x50>
    245c:	e3a0b00c 	mov	fp, #12
    2460:	e5ccb000 	strb	fp, [ip]
    2464:	e59fc5b8 	ldr	ip, [pc, #1464]	; 2a24 <DELAYUS_104+0x54>
    2468:	e3a0b050 	mov	fp, #80	; 0x50
    246c:	e5ccb000 	strb	fp, [ip]
    2470:	e59fc5b0 	ldr	ip, [pc, #1456]	; 2a28 <DELAYUS_104+0x58>
    2474:	e3a0b000 	mov	fp, #0
    2478:	e58cb000 	str	fp, [ip]
    247c:	e59fc5a8 	ldr	ip, [pc, #1448]	; 2a2c <DELAYUS_104+0x5c>
    2480:	e3a0b000 	mov	fp, #0
    2484:	e5ccb000 	strb	fp, [ip]
    2488:	e59fc5a0 	ldr	ip, [pc, #1440]	; 2a30 <DELAYUS_104+0x60>
    248c:	e3a0b011 	mov	fp, #17
    2490:	e5ccb000 	strb	fp, [ip]
    2494:	e59fc598 	ldr	ip, [pc, #1432]	; 2a34 <DELAYUS_104+0x64>
    2498:	e3a0b001 	mov	fp, #1
    249c:	e5ccb000 	strb	fp, [ip]
    24a0:	e59fc590 	ldr	ip, [pc, #1424]	; 2a38 <DELAYUS_104+0x68>
    24a4:	e3a0b010 	mov	fp, #16
    24a8:	e5ccb000 	strb	fp, [ip]
    24ac:	e59fc588 	ldr	ip, [pc, #1416]	; 2a3c <DELAYUS_104+0x6c>
    24b0:	e3a0b000 	mov	fp, #0
    24b4:	e5ccb000 	strb	fp, [ip]
    24b8:	e59fc580 	ldr	ip, [pc, #1408]	; 2a40 <DELAYUS_104+0x70>
    24bc:	e3a0bd8d 	mov	fp, #9024	; 0x2340
    24c0:	e58cb000 	str	fp, [ip]
    24c4:	e59fc578 	ldr	ip, [pc, #1400]	; 2a44 <DELAYUS_104+0x74>
    24c8:	e3a0b029 	mov	fp, #41	; 0x29
    24cc:	e58cb000 	str	fp, [ip]
    24d0:	e59fc570 	ldr	ip, [pc, #1392]	; 2a48 <DELAYUS_104+0x78>
    24d4:	e3a0b001 	mov	fp, #1
    24d8:	e5ccb000 	strb	fp, [ip]
    24dc:	e59fc568 	ldr	ip, [pc, #1384]	; 2a4c <DELAYUS_104+0x7c>
    24e0:	e3a0b000 	mov	fp, #0
    24e4:	e5ccb000 	strb	fp, [ip]
    24e8:	e59fc560 	ldr	ip, [pc, #1376]	; 2a50 <DELAYUS_104+0x80>
    24ec:	e3a0b001 	mov	fp, #1
    24f0:	e5ccb000 	strb	fp, [ip]
    24f4:	e59fc558 	ldr	ip, [pc, #1368]	; 2a54 <DELAYUS_104+0x84>
    24f8:	e3a0b000 	mov	fp, #0
    24fc:	e5ccb000 	strb	fp, [ip]
    2500:	e59fc550 	ldr	ip, [pc, #1360]	; 2a58 <DELAYUS_104+0x88>
    2504:	e3a0b001 	mov	fp, #1
    2508:	e5ccb000 	strb	fp, [ip]
    250c:	e59fc548 	ldr	ip, [pc, #1352]	; 2a5c <DELAYUS_104+0x8c>
    2510:	e59fb548 	ldr	fp, [pc, #1352]	; 2a60 <DELAYUS_104+0x90>
    2514:	e58cb000 	str	fp, [ip]
    2518:	e59fc544 	ldr	ip, [pc, #1348]	; 2a64 <DELAYUS_104+0x94>
    251c:	e3a0b000 	mov	fp, #0
    2520:	e5ccb000 	strb	fp, [ip]
    2524:	e59fc53c 	ldr	ip, [pc, #1340]	; 2a68 <DELAYUS_104+0x98>
    2528:	e3a0b001 	mov	fp, #1
    252c:	e5ccb000 	strb	fp, [ip]
    2530:	e59fc534 	ldr	ip, [pc, #1332]	; 2a6c <DELAYUS_104+0x9c>
    2534:	e3a0b000 	mov	fp, #0
    2538:	e5ccb000 	strb	fp, [ip]
    253c:	e59fc52c 	ldr	ip, [pc, #1324]	; 2a70 <DELAYUS_104+0xa0>
    2540:	e3a0b019 	mov	fp, #25
    2544:	e5ccb000 	strb	fp, [ip]
    2548:	e59fc524 	ldr	ip, [pc, #1316]	; 2a74 <DELAYUS_104+0xa4>
    254c:	e3a0be11 	mov	fp, #272	; 0x110
    2550:	e58cb000 	str	fp, [ip]
    2554:	e59fc51c 	ldr	ip, [pc, #1308]	; 2a78 <DELAYUS_104+0xa8>
    2558:	e3a0be11 	mov	fp, #272	; 0x110
    255c:	e58cb000 	str	fp, [ip]
    2560:	e59fc514 	ldr	ip, [pc, #1300]	; 2a7c <DELAYUS_104+0xac>
    2564:	e3a0b090 	mov	fp, #144	; 0x90
    2568:	e5ccb000 	strb	fp, [ip]
    256c:	e59fc50c 	ldr	ip, [pc, #1292]	; 2a80 <DELAYUS_104+0xb0>
    2570:	e3a0b043 	mov	fp, #67	; 0x43
    2574:	e5ccb000 	strb	fp, [ip]
    2578:	e59fc504 	ldr	ip, [pc, #1284]	; 2a84 <DELAYUS_104+0xb4>
    257c:	e59fb504 	ldr	fp, [pc, #1284]	; 2a88 <DELAYUS_104+0xb8>
    2580:	e58cb000 	str	fp, [ip]
    2584:	e59fc500 	ldr	ip, [pc, #1280]	; 2a8c <DELAYUS_104+0xbc>
    2588:	e59fb500 	ldr	fp, [pc, #1280]	; 2a90 <DELAYUS_104+0xc0>
    258c:	e58cb048 	str	fp, [ip, #72]	; 0x48
    2590:	e3a0b000 	mov	fp, #0
    2594:	e58cb04c 	str	fp, [ip, #76]	; 0x4c
    2598:	e3a0b002 	mov	fp, #2
    259c:	e58cb040 	str	fp, [ip, #64]	; 0x40

000025a0 <DELAYUS_38>:
    25a0:	e59cb044 	ldr	fp, [ip, #68]	; 0x44
    25a4:	e25bb001 	subs	fp, fp, #1
    25a8:	1afffffc 	bne	25a0 <DELAYUS_38>
    25ac:	e59fc4e0 	ldr	ip, [pc, #1248]	; 2a94 <DELAYUS_104+0xc4>
    25b0:	e3a0b080 	mov	fp, #128	; 0x80
    25b4:	e5ccb000 	strb	fp, [ip]
    25b8:	e59fc4d8 	ldr	ip, [pc, #1240]	; 2a98 <DELAYUS_104+0xc8>
    25bc:	e59fb4d8 	ldr	fp, [pc, #1240]	; 2a9c <DELAYUS_104+0xcc>
    25c0:	e58cb000 	str	fp, [ip]
    25c4:	e59fc4d4 	ldr	ip, [pc, #1236]	; 2aa0 <DELAYUS_104+0xd0>
    25c8:	e59fb4d4 	ldr	fp, [pc, #1236]	; 2aa4 <DELAYUS_104+0xd4>
    25cc:	e58cb000 	str	fp, [ip]
    25d0:	e59fc4d0 	ldr	ip, [pc, #1232]	; 2aa8 <DELAYUS_104+0xd8>
    25d4:	e59fb4c0 	ldr	fp, [pc, #1216]	; 2a9c <DELAYUS_104+0xcc>
    25d8:	e58cb000 	str	fp, [ip]
    25dc:	e59fc4c8 	ldr	ip, [pc, #1224]	; 2aac <DELAYUS_104+0xdc>
    25e0:	e59fb4bc 	ldr	fp, [pc, #1212]	; 2aa4 <DELAYUS_104+0xd4>
    25e4:	e58cb000 	str	fp, [ip]
    25e8:	e59fc4c0 	ldr	ip, [pc, #1216]	; 2ab0 <DELAYUS_104+0xe0>
    25ec:	e59fb4a8 	ldr	fp, [pc, #1192]	; 2a9c <DELAYUS_104+0xcc>
    25f0:	e58cb000 	str	fp, [ip]
    25f4:	e59fc4b8 	ldr	ip, [pc, #1208]	; 2ab4 <DELAYUS_104+0xe4>
    25f8:	e59fb4a4 	ldr	fp, [pc, #1188]	; 2aa4 <DELAYUS_104+0xd4>
    25fc:	e58cb000 	str	fp, [ip]
    2600:	e59fc4b0 	ldr	ip, [pc, #1200]	; 2ab8 <DELAYUS_104+0xe8>
    2604:	e59fb490 	ldr	fp, [pc, #1168]	; 2a9c <DELAYUS_104+0xcc>
    2608:	e58cb000 	str	fp, [ip]
    260c:	e59fc4a8 	ldr	ip, [pc, #1192]	; 2abc <DELAYUS_104+0xec>
    2610:	e59fb48c 	ldr	fp, [pc, #1164]	; 2aa4 <DELAYUS_104+0xd4>
    2614:	e58cb000 	str	fp, [ip]
    2618:	e59fc4a0 	ldr	ip, [pc, #1184]	; 2ac0 <DELAYUS_104+0xf0>
    261c:	e59fb478 	ldr	fp, [pc, #1144]	; 2a9c <DELAYUS_104+0xcc>
    2620:	e58cb000 	str	fp, [ip]
    2624:	e59fc498 	ldr	ip, [pc, #1176]	; 2ac4 <DELAYUS_104+0xf4>
    2628:	e59fb474 	ldr	fp, [pc, #1140]	; 2aa4 <DELAYUS_104+0xd4>
    262c:	e58cb000 	str	fp, [ip]
    2630:	e59fc490 	ldr	ip, [pc, #1168]	; 2ac8 <DELAYUS_104+0xf8>
    2634:	e3a0b000 	mov	fp, #0
    2638:	e5ccb000 	strb	fp, [ip]
    263c:	e59fc488 	ldr	ip, [pc, #1160]	; 2acc <DELAYUS_104+0xfc>
    2640:	e3a0b008 	mov	fp, #8
    2644:	e5ccb000 	strb	fp, [ip]
    2648:	e59fc480 	ldr	ip, [pc, #1152]	; 2ad0 <DELAYUS_104+0x100>
    264c:	e3a0b000 	mov	fp, #0
    2650:	e58cb000 	str	fp, [ip]
    2654:	e59fc478 	ldr	ip, [pc, #1144]	; 2ad4 <DELAYUS_104+0x104>
    2658:	e3a0b00a 	mov	fp, #10
    265c:	e5ccb000 	strb	fp, [ip]
    2660:	e59fc46c 	ldr	ip, [pc, #1132]	; 2ad4 <DELAYUS_104+0x104>
    2664:	e3a0b028 	mov	fp, #40	; 0x28
    2668:	e5ccb000 	strb	fp, [ip]
    266c:	e59fc464 	ldr	ip, [pc, #1124]	; 2ad8 <DELAYUS_104+0x108>
    2670:	e59fb464 	ldr	fp, [pc, #1124]	; 2adc <DELAYUS_104+0x10c>
    2674:	e58cb000 	str	fp, [ip]
    2678:	e59fc460 	ldr	ip, [pc, #1120]	; 2ae0 <DELAYUS_104+0x110>
    267c:	e59fb460 	ldr	fp, [pc, #1120]	; 2ae4 <DELAYUS_104+0x114>
    2680:	e58cb000 	str	fp, [ip]
    2684:	e59fc45c 	ldr	ip, [pc, #1116]	; 2ae8 <DELAYUS_104+0x118>
    2688:	e59fb45c 	ldr	fp, [pc, #1116]	; 2aec <DELAYUS_104+0x11c>
    268c:	e58cb000 	str	fp, [ip]
    2690:	e59fc400 	ldr	ip, [pc, #1024]	; 2a98 <DELAYUS_104+0xc8>
    2694:	e59fb454 	ldr	fp, [pc, #1108]	; 2af0 <DELAYUS_104+0x120>
    2698:	e58cb000 	str	fp, [ip]
    269c:	e59fc3fc 	ldr	ip, [pc, #1020]	; 2aa0 <DELAYUS_104+0xd0>
    26a0:	e59fb44c 	ldr	fp, [pc, #1100]	; 2af4 <DELAYUS_104+0x124>
    26a4:	e58cb000 	str	fp, [ip]
    26a8:	e59fc3dc 	ldr	ip, [pc, #988]	; 2a8c <DELAYUS_104+0xbc>
    26ac:	e59fb3dc 	ldr	fp, [pc, #988]	; 2a90 <DELAYUS_104+0xc0>
    26b0:	e58cb048 	str	fp, [ip, #72]	; 0x48
    26b4:	e3a0b000 	mov	fp, #0
    26b8:	e58cb04c 	str	fp, [ip, #76]	; 0x4c
    26bc:	e3a0b002 	mov	fp, #2
    26c0:	e58cb040 	str	fp, [ip, #64]	; 0x40

000026c4 <DELAYUS_60>:
    26c4:	e59cb044 	ldr	fp, [ip, #68]	; 0x44
    26c8:	e25bb001 	subs	fp, fp, #1
    26cc:	1afffffc 	bne	26c4 <DELAYUS_60>
    26d0:	e59fc3c8 	ldr	ip, [pc, #968]	; 2aa0 <DELAYUS_104+0xd0>
    26d4:	e59fb41c 	ldr	fp, [pc, #1052]	; 2af8 <DELAYUS_104+0x128>
    26d8:	e58cb000 	str	fp, [ip]
    26dc:	e59fc3a8 	ldr	ip, [pc, #936]	; 2a8c <DELAYUS_104+0xbc>
    26e0:	e59fb414 	ldr	fp, [pc, #1044]	; 2afc <DELAYUS_104+0x12c>
    26e4:	e58cb048 	str	fp, [ip, #72]	; 0x48
    26e8:	e3a0b000 	mov	fp, #0
    26ec:	e58cb04c 	str	fp, [ip, #76]	; 0x4c
    26f0:	e3a0b002 	mov	fp, #2
    26f4:	e58cb040 	str	fp, [ip, #64]	; 0x40

000026f8 <DELAYUS_62>:
    26f8:	e59cb044 	ldr	fp, [ip, #68]	; 0x44
    26fc:	e25bb001 	subs	fp, fp, #1
    2700:	1afffffc 	bne	26f8 <DELAYUS_62>
    2704:	e59fc394 	ldr	ip, [pc, #916]	; 2aa0 <DELAYUS_104+0xd0>
    2708:	e3a0b001 	mov	fp, #1
    270c:	e58cb000 	str	fp, [ip]
    2710:	e59fc3e8 	ldr	ip, [pc, #1000]	; 2b00 <DELAYUS_104+0x130>
    2714:	e3a0b00a 	mov	fp, #10
    2718:	e5ccb000 	strb	fp, [ip]
    271c:	e59fc3dc 	ldr	ip, [pc, #988]	; 2b00 <DELAYUS_104+0x130>
    2720:	e3a0b028 	mov	fp, #40	; 0x28
    2724:	e5ccb000 	strb	fp, [ip]
    2728:	e59fc3d4 	ldr	ip, [pc, #980]	; 2b04 <DELAYUS_104+0x134>
    272c:	e59fb3a8 	ldr	fp, [pc, #936]	; 2adc <DELAYUS_104+0x10c>
    2730:	e58cb000 	str	fp, [ip]
    2734:	e59fc3cc 	ldr	ip, [pc, #972]	; 2b08 <DELAYUS_104+0x138>
    2738:	e59fb3a4 	ldr	fp, [pc, #932]	; 2ae4 <DELAYUS_104+0x114>
    273c:	e58cb000 	str	fp, [ip]
    2740:	e59fc3c4 	ldr	ip, [pc, #964]	; 2b0c <DELAYUS_104+0x13c>
    2744:	e59fb3a0 	ldr	fp, [pc, #928]	; 2aec <DELAYUS_104+0x11c>
    2748:	e58cb000 	str	fp, [ip]
    274c:	e59fc354 	ldr	ip, [pc, #852]	; 2aa8 <DELAYUS_104+0xd8>
    2750:	e59fb398 	ldr	fp, [pc, #920]	; 2af0 <DELAYUS_104+0x120>
    2754:	e58cb000 	str	fp, [ip]
    2758:	e59fc34c 	ldr	ip, [pc, #844]	; 2aac <DELAYUS_104+0xdc>
    275c:	e59fb390 	ldr	fp, [pc, #912]	; 2af4 <DELAYUS_104+0x124>
    2760:	e58cb000 	str	fp, [ip]
    2764:	e59fc320 	ldr	ip, [pc, #800]	; 2a8c <DELAYUS_104+0xbc>
    2768:	e59fb320 	ldr	fp, [pc, #800]	; 2a90 <DELAYUS_104+0xc0>
    276c:	e58cb048 	str	fp, [ip, #72]	; 0x48
    2770:	e3a0b000 	mov	fp, #0
    2774:	e58cb04c 	str	fp, [ip, #76]	; 0x4c
    2778:	e3a0b002 	mov	fp, #2
    277c:	e58cb040 	str	fp, [ip, #64]	; 0x40

00002780 <DELAYUS_71>:
    2780:	e59cb044 	ldr	fp, [ip, #68]	; 0x44
    2784:	e25bb001 	subs	fp, fp, #1
    2788:	1afffffc 	bne	2780 <DELAYUS_71>
    278c:	e59fc318 	ldr	ip, [pc, #792]	; 2aac <DELAYUS_104+0xdc>
    2790:	e59fb360 	ldr	fp, [pc, #864]	; 2af8 <DELAYUS_104+0x128>
    2794:	e58cb000 	str	fp, [ip]
    2798:	e59fc2ec 	ldr	ip, [pc, #748]	; 2a8c <DELAYUS_104+0xbc>
    279c:	e59fb358 	ldr	fp, [pc, #856]	; 2afc <DELAYUS_104+0x12c>
    27a0:	e58cb048 	str	fp, [ip, #72]	; 0x48
    27a4:	e3a0b000 	mov	fp, #0
    27a8:	e58cb04c 	str	fp, [ip, #76]	; 0x4c
    27ac:	e3a0b002 	mov	fp, #2
    27b0:	e58cb040 	str	fp, [ip, #64]	; 0x40

000027b4 <DELAYUS_73>:
    27b4:	e59cb044 	ldr	fp, [ip, #68]	; 0x44
    27b8:	e25bb001 	subs	fp, fp, #1
    27bc:	1afffffc 	bne	27b4 <DELAYUS_73>
    27c0:	e59fc2e4 	ldr	ip, [pc, #740]	; 2aac <DELAYUS_104+0xdc>
    27c4:	e3a0b001 	mov	fp, #1
    27c8:	e58cb000 	str	fp, [ip]
    27cc:	e59fc33c 	ldr	ip, [pc, #828]	; 2b10 <DELAYUS_104+0x140>
    27d0:	e3a0b00a 	mov	fp, #10
    27d4:	e5ccb000 	strb	fp, [ip]
    27d8:	e59fc330 	ldr	ip, [pc, #816]	; 2b10 <DELAYUS_104+0x140>
    27dc:	e3a0b028 	mov	fp, #40	; 0x28
    27e0:	e5ccb000 	strb	fp, [ip]
    27e4:	e59fc328 	ldr	ip, [pc, #808]	; 2b14 <DELAYUS_104+0x144>
    27e8:	e59fb2ec 	ldr	fp, [pc, #748]	; 2adc <DELAYUS_104+0x10c>
    27ec:	e58cb000 	str	fp, [ip]
    27f0:	e59fc320 	ldr	ip, [pc, #800]	; 2b18 <DELAYUS_104+0x148>
    27f4:	e59fb2e8 	ldr	fp, [pc, #744]	; 2ae4 <DELAYUS_104+0x114>
    27f8:	e58cb000 	str	fp, [ip]
    27fc:	e59fc318 	ldr	ip, [pc, #792]	; 2b1c <DELAYUS_104+0x14c>
    2800:	e59fb2e4 	ldr	fp, [pc, #740]	; 2aec <DELAYUS_104+0x11c>
    2804:	e58cb000 	str	fp, [ip]
    2808:	e59fc2a0 	ldr	ip, [pc, #672]	; 2ab0 <DELAYUS_104+0xe0>
    280c:	e59fb2dc 	ldr	fp, [pc, #732]	; 2af0 <DELAYUS_104+0x120>
    2810:	e58cb000 	str	fp, [ip]
    2814:	e59fc298 	ldr	ip, [pc, #664]	; 2ab4 <DELAYUS_104+0xe4>
    2818:	e59fb2d4 	ldr	fp, [pc, #724]	; 2af4 <DELAYUS_104+0x124>
    281c:	e58cb000 	str	fp, [ip]
    2820:	e59fc264 	ldr	ip, [pc, #612]	; 2a8c <DELAYUS_104+0xbc>
    2824:	e59fb264 	ldr	fp, [pc, #612]	; 2a90 <DELAYUS_104+0xc0>
    2828:	e58cb048 	str	fp, [ip, #72]	; 0x48
    282c:	e3a0b000 	mov	fp, #0
    2830:	e58cb04c 	str	fp, [ip, #76]	; 0x4c
    2834:	e3a0b002 	mov	fp, #2
    2838:	e58cb040 	str	fp, [ip, #64]	; 0x40

0000283c <DELAYUS_82>:
    283c:	e59cb044 	ldr	fp, [ip, #68]	; 0x44
    2840:	e25bb001 	subs	fp, fp, #1
    2844:	1afffffc 	bne	283c <DELAYUS_82>
    2848:	e59fc264 	ldr	ip, [pc, #612]	; 2ab4 <DELAYUS_104+0xe4>
    284c:	e59fb2a4 	ldr	fp, [pc, #676]	; 2af8 <DELAYUS_104+0x128>
    2850:	e58cb000 	str	fp, [ip]
    2854:	e59fc230 	ldr	ip, [pc, #560]	; 2a8c <DELAYUS_104+0xbc>
    2858:	e59fb29c 	ldr	fp, [pc, #668]	; 2afc <DELAYUS_104+0x12c>
    285c:	e58cb048 	str	fp, [ip, #72]	; 0x48
    2860:	e3a0b000 	mov	fp, #0
    2864:	e58cb04c 	str	fp, [ip, #76]	; 0x4c
    2868:	e3a0b002 	mov	fp, #2
    286c:	e58cb040 	str	fp, [ip, #64]	; 0x40

00002870 <DELAYUS_84>:
    2870:	e59cb044 	ldr	fp, [ip, #68]	; 0x44
    2874:	e25bb001 	subs	fp, fp, #1
    2878:	1afffffc 	bne	2870 <DELAYUS_84>
    287c:	e59fc230 	ldr	ip, [pc, #560]	; 2ab4 <DELAYUS_104+0xe4>
    2880:	e3a0b001 	mov	fp, #1
    2884:	e58cb000 	str	fp, [ip]
    2888:	e59fc290 	ldr	ip, [pc, #656]	; 2b20 <DELAYUS_104+0x150>
    288c:	e3a0b00a 	mov	fp, #10
    2890:	e5ccb000 	strb	fp, [ip]
    2894:	e59fc284 	ldr	ip, [pc, #644]	; 2b20 <DELAYUS_104+0x150>
    2898:	e3a0b028 	mov	fp, #40	; 0x28
    289c:	e5ccb000 	strb	fp, [ip]
    28a0:	e59fc27c 	ldr	ip, [pc, #636]	; 2b24 <DELAYUS_104+0x154>
    28a4:	e59fb230 	ldr	fp, [pc, #560]	; 2adc <DELAYUS_104+0x10c>
    28a8:	e58cb000 	str	fp, [ip]
    28ac:	e59fc274 	ldr	ip, [pc, #628]	; 2b28 <DELAYUS_104+0x158>
    28b0:	e59fb22c 	ldr	fp, [pc, #556]	; 2ae4 <DELAYUS_104+0x114>
    28b4:	e58cb000 	str	fp, [ip]
    28b8:	e59fc26c 	ldr	ip, [pc, #620]	; 2b2c <DELAYUS_104+0x15c>
    28bc:	e59fb228 	ldr	fp, [pc, #552]	; 2aec <DELAYUS_104+0x11c>
    28c0:	e58cb000 	str	fp, [ip]
    28c4:	e59fc1ec 	ldr	ip, [pc, #492]	; 2ab8 <DELAYUS_104+0xe8>
    28c8:	e59fb220 	ldr	fp, [pc, #544]	; 2af0 <DELAYUS_104+0x120>
    28cc:	e58cb000 	str	fp, [ip]
    28d0:	e59fc1e4 	ldr	ip, [pc, #484]	; 2abc <DELAYUS_104+0xec>
    28d4:	e59fb218 	ldr	fp, [pc, #536]	; 2af4 <DELAYUS_104+0x124>
    28d8:	e58cb000 	str	fp, [ip]
    28dc:	e59fc1a8 	ldr	ip, [pc, #424]	; 2a8c <DELAYUS_104+0xbc>
    28e0:	e59fb1a8 	ldr	fp, [pc, #424]	; 2a90 <DELAYUS_104+0xc0>
    28e4:	e58cb048 	str	fp, [ip, #72]	; 0x48
    28e8:	e3a0b000 	mov	fp, #0
    28ec:	e58cb04c 	str	fp, [ip, #76]	; 0x4c
    28f0:	e3a0b002 	mov	fp, #2
    28f4:	e58cb040 	str	fp, [ip, #64]	; 0x40

000028f8 <DELAYUS_93>:
    28f8:	e59cb044 	ldr	fp, [ip, #68]	; 0x44
    28fc:	e25bb001 	subs	fp, fp, #1
    2900:	1afffffc 	bne	28f8 <DELAYUS_93>
    2904:	e59fc1b0 	ldr	ip, [pc, #432]	; 2abc <DELAYUS_104+0xec>
    2908:	e59fb1e8 	ldr	fp, [pc, #488]	; 2af8 <DELAYUS_104+0x128>
    290c:	e58cb000 	str	fp, [ip]
    2910:	e59fc174 	ldr	ip, [pc, #372]	; 2a8c <DELAYUS_104+0xbc>
    2914:	e59fb1e0 	ldr	fp, [pc, #480]	; 2afc <DELAYUS_104+0x12c>
    2918:	e58cb048 	str	fp, [ip, #72]	; 0x48
    291c:	e3a0b000 	mov	fp, #0
    2920:	e58cb04c 	str	fp, [ip, #76]	; 0x4c
    2924:	e3a0b002 	mov	fp, #2
    2928:	e58cb040 	str	fp, [ip, #64]	; 0x40

0000292c <DELAYUS_95>:
    292c:	e59cb044 	ldr	fp, [ip, #68]	; 0x44
    2930:	e25bb001 	subs	fp, fp, #1
    2934:	1afffffc 	bne	292c <DELAYUS_95>
    2938:	e59fc17c 	ldr	ip, [pc, #380]	; 2abc <DELAYUS_104+0xec>
    293c:	e3a0b001 	mov	fp, #1
    2940:	e58cb000 	str	fp, [ip]
    2944:	e59fc1e4 	ldr	ip, [pc, #484]	; 2b30 <DELAYUS_104+0x160>
    2948:	e59fb18c 	ldr	fp, [pc, #396]	; 2adc <DELAYUS_104+0x10c>
    294c:	e58cb000 	str	fp, [ip]
    2950:	e59fc1dc 	ldr	ip, [pc, #476]	; 2b34 <DELAYUS_104+0x164>
    2954:	e59fb188 	ldr	fp, [pc, #392]	; 2ae4 <DELAYUS_104+0x114>
    2958:	e58cb000 	str	fp, [ip]
    295c:	e59fc1d4 	ldr	ip, [pc, #468]	; 2b38 <DELAYUS_104+0x168>
    2960:	e59fb184 	ldr	fp, [pc, #388]	; 2aec <DELAYUS_104+0x11c>
    2964:	e58cb000 	str	fp, [ip]
    2968:	e59fc150 	ldr	ip, [pc, #336]	; 2ac0 <DELAYUS_104+0xf0>
    296c:	e59fb17c 	ldr	fp, [pc, #380]	; 2af0 <DELAYUS_104+0x120>
    2970:	e58cb000 	str	fp, [ip]
    2974:	e59fc148 	ldr	ip, [pc, #328]	; 2ac4 <DELAYUS_104+0xf4>
    2978:	e59fb174 	ldr	fp, [pc, #372]	; 2af4 <DELAYUS_104+0x124>
    297c:	e58cb000 	str	fp, [ip]
    2980:	e59fc104 	ldr	ip, [pc, #260]	; 2a8c <DELAYUS_104+0xbc>
    2984:	e59fb104 	ldr	fp, [pc, #260]	; 2a90 <DELAYUS_104+0xc0>
    2988:	e58cb048 	str	fp, [ip, #72]	; 0x48
    298c:	e3a0b000 	mov	fp, #0
    2990:	e58cb04c 	str	fp, [ip, #76]	; 0x4c
    2994:	e3a0b002 	mov	fp, #2
    2998:	e58cb040 	str	fp, [ip, #64]	; 0x40

0000299c <DELAYUS_102>:
    299c:	e59cb044 	ldr	fp, [ip, #68]	; 0x44
    29a0:	e25bb001 	subs	fp, fp, #1
    29a4:	1afffffc 	bne	299c <DELAYUS_102>
    29a8:	e59fc114 	ldr	ip, [pc, #276]	; 2ac4 <DELAYUS_104+0xf4>
    29ac:	e59fb144 	ldr	fp, [pc, #324]	; 2af8 <DELAYUS_104+0x128>
    29b0:	e58cb000 	str	fp, [ip]
    29b4:	e59fc0d0 	ldr	ip, [pc, #208]	; 2a8c <DELAYUS_104+0xbc>
    29b8:	e59fb13c 	ldr	fp, [pc, #316]	; 2afc <DELAYUS_104+0x12c>
    29bc:	e58cb048 	str	fp, [ip, #72]	; 0x48
    29c0:	e3a0b000 	mov	fp, #0
    29c4:	e58cb04c 	str	fp, [ip, #76]	; 0x4c
    29c8:	e3a0b002 	mov	fp, #2
    29cc:	e58cb040 	str	fp, [ip, #64]	; 0x40

000029d0 <DELAYUS_104>:
    29d0:	e59cb044 	ldr	fp, [ip, #68]	; 0x44
    29d4:	e25bb001 	subs	fp, fp, #1
    29d8:	1afffffc 	bne	29d0 <DELAYUS_104>
    29dc:	e59fc0e0 	ldr	ip, [pc, #224]	; 2ac4 <DELAYUS_104+0xf4>
    29e0:	e3a0b001 	mov	fp, #1
    29e4:	e58cb000 	str	fp, [ip]
    29e8:	e12fff1e 	bx	lr
    29ec:	1f204a1c 	.word	0x1f204a1c
    29f0:	1f204bf8 	.word	0x1f204bf8
    29f4:	1f204bfc 	.word	0x1f204bfc
    29f8:	1f204a10 	.word	0x1f204a10
    29fc:	1f204a14 	.word	0x1f204a14
    2a00:	1f204a18 	.word	0x1f204a18
    2a04:	1f204afc 	.word	0x1f204afc
    2a08:	1f204b20 	.word	0x1f204b20
    2a0c:	1f204b24 	.word	0x1f204b24
    2a10:	1f204b40 	.word	0x1f204b40
    2a14:	1f204b48 	.word	0x1f204b48
    2a18:	1f244238 	.word	0x1f244238
    2a1c:	0000017d 	.word	0x0000017d
    2a20:	1f244230 	.word	0x1f244230
    2a24:	1f244248 	.word	0x1f244248
    2a28:	1f203c70 	.word	0x1f203c70
    2a2c:	1f221805 	.word	0x1f221805
    2a30:	1f221810 	.word	0x1f221810
    2a34:	1f221800 	.word	0x1f221800
    2a38:	1f221801 	.word	0x1f221801
    2a3c:	1f221845 	.word	0x1f221845
    2a40:	1f221980 	.word	0x1f221980
    2a44:	1f221984 	.word	0x1f221984
    2a48:	1f221988 	.word	0x1f221988
    2a4c:	1f2218c5 	.word	0x1f2218c5
    2a50:	1f2218d0 	.word	0x1f2218d0
    2a54:	1f2218e5 	.word	0x1f2218e5
    2a58:	1f2218f0 	.word	0x1f2218f0
    2a5c:	1f201674 	.word	0x1f201674
    2a60:	00000808 	.word	0x00000808
    2a64:	1f221885 	.word	0x1f221885
    2a68:	1f221890 	.word	0x1f221890
    2a6c:	1f2219cc 	.word	0x1f2219cc
    2a70:	1f2219ec 	.word	0x1f2219ec
    2a74:	1f201008 	.word	0x1f201008
    2a78:	1f201048 	.word	0x1f201048
    2a7c:	1f201000 	.word	0x1f201000
    2a80:	1f223924 	.word	0x1f223924
    2a84:	1f2238d0 	.word	0x1f2238d0
    2a88:	00000418 	.word	0x00000418
    2a8c:	1f006000 	.word	0x1f006000
    2a90:	00002ee0 	.word	0x00002ee0
    2a94:	1f201040 	.word	0x1f201040
    2a98:	1f207510 	.word	0x1f207510
    2a9c:	0000040f 	.word	0x0000040f
    2aa0:	1f207500 	.word	0x1f207500
    2aa4:	00007f05 	.word	0x00007f05
    2aa8:	1f207410 	.word	0x1f207410
    2aac:	1f207400 	.word	0x1f207400
    2ab0:	1f207210 	.word	0x1f207210
    2ab4:	1f207200 	.word	0x1f207200
    2ab8:	1f244110 	.word	0x1f244110
    2abc:	1f244100 	.word	0x1f244100
    2ac0:	1f244610 	.word	0x1f244610
    2ac4:	1f244600 	.word	0x1f244600
    2ac8:	1f221114 	.word	0x1f221114
    2acc:	1f221118 	.word	0x1f221118
    2ad0:	1f206680 	.word	0x1f206680
    2ad4:	1f200e00 	.word	0x1f200e00
    2ad8:	1f207544 	.word	0x1f207544
    2adc:	00002088 	.word	0x00002088
    2ae0:	1f207540 	.word	0x1f207540
    2ae4:	00008051 	.word	0x00008051
    2ae8:	1f207504 	.word	0x1f207504
    2aec:	00002084 	.word	0x00002084
    2af0:	00000406 	.word	0x00000406
    2af4:	00006bc3 	.word	0x00006bc3
    2af8:	000069c3 	.word	0x000069c3
    2afc:	00005dc0 	.word	0x00005dc0
    2b00:	1f200f00 	.word	0x1f200f00
    2b04:	1f207444 	.word	0x1f207444
    2b08:	1f207440 	.word	0x1f207440
    2b0c:	1f207404 	.word	0x1f207404
    2b10:	1f227000 	.word	0x1f227000
    2b14:	1f207244 	.word	0x1f207244
    2b18:	1f207240 	.word	0x1f207240
    2b1c:	1f207204 	.word	0x1f207204
    2b20:	1f227100 	.word	0x1f227100
    2b24:	1f244144 	.word	0x1f244144
    2b28:	1f244140 	.word	0x1f244140
    2b2c:	1f244104 	.word	0x1f244104
    2b30:	1f244644 	.word	0x1f244644
    2b34:	1f244640 	.word	0x1f244640
    2b38:	1f244604 	.word	0x1f244604

00002b3c <BootRom_InitClock>:
    2b3c:	e59fc3d8 	ldr	ip, [pc, #984]	; 2f1c <BootRom_ChangeSpiFlashClock+0x28>
    2b40:	e3a0b000 	mov	fp, #0
    2b44:	e5ccb000 	strb	fp, [ip]
    2b48:	e59fc3d0 	ldr	ip, [pc, #976]	; 2f20 <BootRom_ChangeSpiFlashClock+0x2c>
    2b4c:	e3a0b000 	mov	fp, #0
    2b50:	e5ccb000 	strb	fp, [ip]
    2b54:	e59fc3c0 	ldr	ip, [pc, #960]	; 2f1c <BootRom_ChangeSpiFlashClock+0x28>
    2b58:	e3a0b001 	mov	fp, #1
    2b5c:	e5ccb000 	strb	fp, [ip]
    2b60:	e59fc3bc 	ldr	ip, [pc, #956]	; 2f24 <BootRom_ChangeSpiFlashClock+0x30>
    2b64:	e3a0b00c 	mov	fp, #12
    2b68:	e5ccb000 	strb	fp, [ip]
    2b6c:	e59fc3b4 	ldr	ip, [pc, #948]	; 2f28 <BootRom_ChangeSpiFlashClock+0x34>
    2b70:	e3a0b00c 	mov	fp, #12
    2b74:	e5ccb000 	strb	fp, [ip]
    2b78:	e59fc3ac 	ldr	ip, [pc, #940]	; 2f2c <BootRom_ChangeSpiFlashClock+0x38>
    2b7c:	e3a0b00c 	mov	fp, #12
    2b80:	e5ccb000 	strb	fp, [ip]
    2b84:	e59fc3a4 	ldr	ip, [pc, #932]	; 2f30 <BootRom_ChangeSpiFlashClock+0x3c>
    2b88:	e3a0b014 	mov	fp, #20
    2b8c:	e5ccb000 	strb	fp, [ip]
    2b90:	e59fc39c 	ldr	ip, [pc, #924]	; 2f34 <BootRom_ChangeSpiFlashClock+0x40>
    2b94:	e3a0b004 	mov	fp, #4
    2b98:	e5ccb000 	strb	fp, [ip]
    2b9c:	e59fc390 	ldr	ip, [pc, #912]	; 2f34 <BootRom_ChangeSpiFlashClock+0x40>
    2ba0:	e3a0b024 	mov	fp, #36	; 0x24
    2ba4:	e5ccb000 	strb	fp, [ip]
    2ba8:	e59fc388 	ldr	ip, [pc, #904]	; 2f38 <BootRom_ChangeSpiFlashClock+0x44>
    2bac:	e3a0b000 	mov	fp, #0
    2bb0:	e5ccb000 	strb	fp, [ip]
    2bb4:	e59fc380 	ldr	ip, [pc, #896]	; 2f3c <BootRom_ChangeSpiFlashClock+0x48>
    2bb8:	e3a0b000 	mov	fp, #0
    2bbc:	e5ccb000 	strb	fp, [ip]
    2bc0:	e59fc378 	ldr	ip, [pc, #888]	; 2f40 <BootRom_ChangeSpiFlashClock+0x4c>
    2bc4:	e3a0b000 	mov	fp, #0
    2bc8:	e5ccb000 	strb	fp, [ip]
    2bcc:	e59fc370 	ldr	ip, [pc, #880]	; 2f44 <BootRom_ChangeSpiFlashClock+0x50>
    2bd0:	e3a0b000 	mov	fp, #0
    2bd4:	e5ccb000 	strb	fp, [ip]
    2bd8:	e59fc368 	ldr	ip, [pc, #872]	; 2f48 <BootRom_ChangeSpiFlashClock+0x54>
    2bdc:	e3a0b011 	mov	fp, #17
    2be0:	e5ccb000 	strb	fp, [ip]
    2be4:	e59fc360 	ldr	ip, [pc, #864]	; 2f4c <BootRom_ChangeSpiFlashClock+0x58>
    2be8:	e3a0b000 	mov	fp, #0
    2bec:	e5ccb000 	strb	fp, [ip]
    2bf0:	e59fc358 	ldr	ip, [pc, #856]	; 2f50 <BootRom_ChangeSpiFlashClock+0x5c>
    2bf4:	e3a0b001 	mov	fp, #1
    2bf8:	e5ccb000 	strb	fp, [ip]
    2bfc:	e59fc350 	ldr	ip, [pc, #848]	; 2f54 <BootRom_ChangeSpiFlashClock+0x60>
    2c00:	e3a0b001 	mov	fp, #1
    2c04:	e5ccb000 	strb	fp, [ip]
    2c08:	e59fc348 	ldr	ip, [pc, #840]	; 2f58 <BootRom_ChangeSpiFlashClock+0x64>
    2c0c:	e3a0b001 	mov	fp, #1
    2c10:	e5ccb000 	strb	fp, [ip]
    2c14:	e59fc340 	ldr	ip, [pc, #832]	; 2f5c <BootRom_ChangeSpiFlashClock+0x68>
    2c18:	e3a0b001 	mov	fp, #1
    2c1c:	e5ccb000 	strb	fp, [ip]
    2c20:	e59fc338 	ldr	ip, [pc, #824]	; 2f60 <BootRom_ChangeSpiFlashClock+0x6c>
    2c24:	e3a0b001 	mov	fp, #1
    2c28:	e5ccb000 	strb	fp, [ip]
    2c2c:	e59fc330 	ldr	ip, [pc, #816]	; 2f64 <BootRom_ChangeSpiFlashClock+0x70>
    2c30:	e3a0b009 	mov	fp, #9
    2c34:	e5ccb000 	strb	fp, [ip]
    2c38:	e59fc328 	ldr	ip, [pc, #808]	; 2f68 <BootRom_ChangeSpiFlashClock+0x74>
    2c3c:	e3a0b001 	mov	fp, #1
    2c40:	e5ccb000 	strb	fp, [ip]
    2c44:	e59fc320 	ldr	ip, [pc, #800]	; 2f6c <BootRom_ChangeSpiFlashClock+0x78>
    2c48:	e3a0b001 	mov	fp, #1
    2c4c:	e5ccb000 	strb	fp, [ip]
    2c50:	e59fc318 	ldr	ip, [pc, #792]	; 2f70 <BootRom_ChangeSpiFlashClock+0x7c>
    2c54:	e3a0b001 	mov	fp, #1
    2c58:	e5ccb000 	strb	fp, [ip]
    2c5c:	e59fc310 	ldr	ip, [pc, #784]	; 2f74 <BootRom_ChangeSpiFlashClock+0x80>
    2c60:	e3a0b001 	mov	fp, #1
    2c64:	e5ccb000 	strb	fp, [ip]
    2c68:	e59fc308 	ldr	ip, [pc, #776]	; 2f78 <BootRom_ChangeSpiFlashClock+0x84>
    2c6c:	e3a0b005 	mov	fp, #5
    2c70:	e5ccb000 	strb	fp, [ip]
    2c74:	e59fc300 	ldr	ip, [pc, #768]	; 2f7c <BootRom_ChangeSpiFlashClock+0x88>
    2c78:	e3a0b009 	mov	fp, #9
    2c7c:	e5ccb000 	strb	fp, [ip]
    2c80:	e59fc2f8 	ldr	ip, [pc, #760]	; 2f80 <BootRom_ChangeSpiFlashClock+0x8c>
    2c84:	e3a0b041 	mov	fp, #65	; 0x41
    2c88:	e5ccb000 	strb	fp, [ip]
    2c8c:	e59fc2f0 	ldr	ip, [pc, #752]	; 2f84 <BootRom_ChangeSpiFlashClock+0x90>
    2c90:	e3a0b010 	mov	fp, #16
    2c94:	e5ccb000 	strb	fp, [ip]
    2c98:	e59fc2e8 	ldr	ip, [pc, #744]	; 2f88 <BootRom_ChangeSpiFlashClock+0x94>
    2c9c:	e3a0b011 	mov	fp, #17
    2ca0:	e5ccb000 	strb	fp, [ip]
    2ca4:	e59fc2e0 	ldr	ip, [pc, #736]	; 2f8c <BootRom_ChangeSpiFlashClock+0x98>
    2ca8:	e3a0b001 	mov	fp, #1
    2cac:	e5ccb000 	strb	fp, [ip]
    2cb0:	e59fc2d8 	ldr	ip, [pc, #728]	; 2f90 <BootRom_ChangeSpiFlashClock+0x9c>
    2cb4:	e3a0b001 	mov	fp, #1
    2cb8:	e5ccb000 	strb	fp, [ip]
    2cbc:	e59fc2d0 	ldr	ip, [pc, #720]	; 2f94 <BootRom_ChangeSpiFlashClock+0xa0>
    2cc0:	e3a0b00c 	mov	fp, #12
    2cc4:	e5ccb000 	strb	fp, [ip]
    2cc8:	e59fc2c8 	ldr	ip, [pc, #712]	; 2f98 <BootRom_ChangeSpiFlashClock+0xa4>
    2ccc:	e3a0b001 	mov	fp, #1
    2cd0:	e5ccb000 	strb	fp, [ip]
    2cd4:	e59fc2c0 	ldr	ip, [pc, #704]	; 2f9c <BootRom_ChangeSpiFlashClock+0xa8>
    2cd8:	e3a0b001 	mov	fp, #1
    2cdc:	e5ccb000 	strb	fp, [ip]
    2ce0:	e59fc2b8 	ldr	ip, [pc, #696]	; 2fa0 <BootRom_ChangeSpiFlashClock+0xac>
    2ce4:	e3a0b001 	mov	fp, #1
    2ce8:	e5ccb000 	strb	fp, [ip]
    2cec:	e59fc2b0 	ldr	ip, [pc, #688]	; 2fa4 <BootRom_ChangeSpiFlashClock+0xb0>
    2cf0:	e3a0b001 	mov	fp, #1
    2cf4:	e5ccb000 	strb	fp, [ip]
    2cf8:	e59fc2a8 	ldr	ip, [pc, #680]	; 2fa8 <BootRom_ChangeSpiFlashClock+0xb4>
    2cfc:	e3a0b001 	mov	fp, #1
    2d00:	e5ccb000 	strb	fp, [ip]
    2d04:	e59fc2a0 	ldr	ip, [pc, #672]	; 2fac <BootRom_ChangeSpiFlashClock+0xb8>
    2d08:	e3a0b001 	mov	fp, #1
    2d0c:	e5ccb000 	strb	fp, [ip]
    2d10:	e59fc298 	ldr	ip, [pc, #664]	; 2fb0 <BootRom_ChangeSpiFlashClock+0xbc>
    2d14:	e3a0b001 	mov	fp, #1
    2d18:	e5ccb000 	strb	fp, [ip]
    2d1c:	e59fc290 	ldr	ip, [pc, #656]	; 2fb4 <BootRom_ChangeSpiFlashClock+0xc0>
    2d20:	e3a0b001 	mov	fp, #1
    2d24:	e5ccb000 	strb	fp, [ip]
    2d28:	e59fc288 	ldr	ip, [pc, #648]	; 2fb8 <BootRom_ChangeSpiFlashClock+0xc4>
    2d2c:	e3a0b001 	mov	fp, #1
    2d30:	e5ccb000 	strb	fp, [ip]
    2d34:	e59fc280 	ldr	ip, [pc, #640]	; 2fbc <BootRom_ChangeSpiFlashClock+0xc8>
    2d38:	e3a0b001 	mov	fp, #1
    2d3c:	e5ccb000 	strb	fp, [ip]
    2d40:	e59fc278 	ldr	ip, [pc, #632]	; 2fc0 <BootRom_ChangeSpiFlashClock+0xcc>
    2d44:	e3a0b001 	mov	fp, #1
    2d48:	e5ccb000 	strb	fp, [ip]
    2d4c:	e59fc270 	ldr	ip, [pc, #624]	; 2fc4 <BootRom_ChangeSpiFlashClock+0xd0>
    2d50:	e3a0b001 	mov	fp, #1
    2d54:	e5ccb000 	strb	fp, [ip]
    2d58:	e59fc268 	ldr	ip, [pc, #616]	; 2fc8 <BootRom_ChangeSpiFlashClock+0xd4>
    2d5c:	e3a0b001 	mov	fp, #1
    2d60:	e5ccb000 	strb	fp, [ip]
    2d64:	e59fc260 	ldr	ip, [pc, #608]	; 2fcc <BootRom_ChangeSpiFlashClock+0xd8>
    2d68:	e3a0b001 	mov	fp, #1
    2d6c:	e5ccb000 	strb	fp, [ip]
    2d70:	e59fc258 	ldr	ip, [pc, #600]	; 2fd0 <BootRom_ChangeSpiFlashClock+0xdc>
    2d74:	e3a0b001 	mov	fp, #1
    2d78:	e5ccb000 	strb	fp, [ip]
    2d7c:	e59fc250 	ldr	ip, [pc, #592]	; 2fd4 <BootRom_ChangeSpiFlashClock+0xe0>
    2d80:	e3a0b001 	mov	fp, #1
    2d84:	e5ccb000 	strb	fp, [ip]
    2d88:	e59fc248 	ldr	ip, [pc, #584]	; 2fd8 <BootRom_ChangeSpiFlashClock+0xe4>
    2d8c:	e3a0b001 	mov	fp, #1
    2d90:	e5ccb000 	strb	fp, [ip]
    2d94:	e59fc240 	ldr	ip, [pc, #576]	; 2fdc <BootRom_ChangeSpiFlashClock+0xe8>
    2d98:	e3a0b001 	mov	fp, #1
    2d9c:	e5ccb000 	strb	fp, [ip]
    2da0:	e59fc238 	ldr	ip, [pc, #568]	; 2fe0 <BootRom_ChangeSpiFlashClock+0xec>
    2da4:	e3a0b000 	mov	fp, #0
    2da8:	e5ccb000 	strb	fp, [ip]
    2dac:	e59fc230 	ldr	ip, [pc, #560]	; 2fe4 <BootRom_ChangeSpiFlashClock+0xf0>
    2db0:	e3a0b000 	mov	fp, #0
    2db4:	e5ccb000 	strb	fp, [ip]
    2db8:	e59fc228 	ldr	ip, [pc, #552]	; 2fe8 <BootRom_ChangeSpiFlashClock+0xf4>
    2dbc:	e3a0b000 	mov	fp, #0
    2dc0:	e5ccb000 	strb	fp, [ip]
    2dc4:	e59fc220 	ldr	ip, [pc, #544]	; 2fec <BootRom_ChangeSpiFlashClock+0xf8>
    2dc8:	e3a0b004 	mov	fp, #4
    2dcc:	e5ccb000 	strb	fp, [ip]
    2dd0:	e59fc218 	ldr	ip, [pc, #536]	; 2ff0 <BootRom_ChangeSpiFlashClock+0xfc>
    2dd4:	e3a0b000 	mov	fp, #0
    2dd8:	e5ccb000 	strb	fp, [ip]
    2ddc:	e59fc210 	ldr	ip, [pc, #528]	; 2ff4 <BootRom_ChangeSpiFlashClock+0x100>
    2de0:	e3a0b000 	mov	fp, #0
    2de4:	e5ccb000 	strb	fp, [ip]
    2de8:	e59fc208 	ldr	ip, [pc, #520]	; 2ff8 <BootRom_ChangeSpiFlashClock+0x104>
    2dec:	e3a0b000 	mov	fp, #0
    2df0:	e5ccb000 	strb	fp, [ip]
    2df4:	e59fc200 	ldr	ip, [pc, #512]	; 2ffc <BootRom_ChangeSpiFlashClock+0x108>
    2df8:	e3a0b000 	mov	fp, #0
    2dfc:	e5ccb000 	strb	fp, [ip]
    2e00:	e59fc1f8 	ldr	ip, [pc, #504]	; 3000 <BootRom_ChangeSpiFlashClock+0x10c>
    2e04:	e3a0b000 	mov	fp, #0
    2e08:	e5ccb000 	strb	fp, [ip]
    2e0c:	e59fc1f0 	ldr	ip, [pc, #496]	; 3004 <BootRom_ChangeSpiFlashClock+0x110>
    2e10:	e3a0b000 	mov	fp, #0
    2e14:	e5ccb000 	strb	fp, [ip]
    2e18:	e59fc1e8 	ldr	ip, [pc, #488]	; 3008 <BootRom_ChangeSpiFlashClock+0x114>
    2e1c:	e3a0b000 	mov	fp, #0
    2e20:	e5ccb000 	strb	fp, [ip]
    2e24:	e59fc1e0 	ldr	ip, [pc, #480]	; 300c <BootRom_ChangeSpiFlashClock+0x118>
    2e28:	e3a0b001 	mov	fp, #1
    2e2c:	e5ccb000 	strb	fp, [ip]
    2e30:	e59fc1d8 	ldr	ip, [pc, #472]	; 3010 <BootRom_ChangeSpiFlashClock+0x11c>
    2e34:	e3a0b001 	mov	fp, #1
    2e38:	e5ccb000 	strb	fp, [ip]
    2e3c:	e59fc1d0 	ldr	ip, [pc, #464]	; 3014 <BootRom_ChangeSpiFlashClock+0x120>
    2e40:	e3a0b04c 	mov	fp, #76	; 0x4c
    2e44:	e5ccb000 	strb	fp, [ip]
    2e48:	e59fc1c8 	ldr	ip, [pc, #456]	; 3018 <BootRom_ChangeSpiFlashClock+0x124>
    2e4c:	e3a0b005 	mov	fp, #5
    2e50:	e5ccb000 	strb	fp, [ip]
    2e54:	e12fff1e 	bx	lr

00002e58 <BootRom_SetClockRatio>:
    2e58:	e59fc1bc 	ldr	ip, [pc, #444]	; 301c <BootRom_ChangeSpiFlashClock+0x128>
    2e5c:	e59c0000 	ldr	r0, [ip]
    2e60:	e3c00010 	bic	r0, r0, #16
    2e64:	e59fc1b0 	ldr	ip, [pc, #432]	; 301c <BootRom_ChangeSpiFlashClock+0x128>
    2e68:	e58c0000 	str	r0, [ip]
    2e6c:	e59fc1a8 	ldr	ip, [pc, #424]	; 301c <BootRom_ChangeSpiFlashClock+0x128>
    2e70:	e3a0b000 	mov	fp, #0
    2e74:	e5ccb000 	strb	fp, [ip]
    2e78:	e59fc19c 	ldr	ip, [pc, #412]	; 301c <BootRom_ChangeSpiFlashClock+0x128>
    2e7c:	e3a0b005 	mov	fp, #5
    2e80:	e5ccb000 	strb	fp, [ip]
    2e84:	e3a0c416 	mov	ip, #369098752	; 0x16000000
    2e88:	e59c0000 	ldr	r0, [ip]
    2e8c:	e3800020 	orr	r0, r0, #32
    2e90:	e3a0c416 	mov	ip, #369098752	; 0x16000000
    2e94:	e58c0000 	str	r0, [ip]
    2e98:	e59fc180 	ldr	ip, [pc, #384]	; 3020 <BootRom_ChangeSpiFlashClock+0x12c>
    2e9c:	e59c0000 	ldr	r0, [ip]
    2ea0:	e3800001 	orr	r0, r0, #1
    2ea4:	e59fc174 	ldr	ip, [pc, #372]	; 3020 <BootRom_ChangeSpiFlashClock+0x12c>
    2ea8:	e58c0000 	str	r0, [ip]
    2eac:	e320f003 	wfi
    2eb0:	e59fc16c 	ldr	ip, [pc, #364]	; 3024 <BootRom_ChangeSpiFlashClock+0x130>
    2eb4:	e3a0b000 	mov	fp, #0
    2eb8:	e58cb000 	str	fp, [ip]
    2ebc:	e59fc160 	ldr	ip, [pc, #352]	; 3024 <BootRom_ChangeSpiFlashClock+0x130>
    2ec0:	e3a0b902 	mov	fp, #32768	; 0x8000
    2ec4:	e58cb000 	str	fp, [ip]
    2ec8:	e12fff1e 	bx	lr

00002ecc <BootRom_InitSpiFlashClock>:
    2ecc:	e59fc154 	ldr	ip, [pc, #340]	; 3028 <BootRom_ChangeSpiFlashClock+0x134>
    2ed0:	e3a0b0ff 	mov	fp, #255	; 0xff
    2ed4:	e5ccb000 	strb	fp, [ip]
    2ed8:	e59fc14c 	ldr	ip, [pc, #332]	; 302c <BootRom_ChangeSpiFlashClock+0x138>
    2edc:	e3a0b00f 	mov	fp, #15
    2ee0:	e5ccb000 	strb	fp, [ip]
    2ee4:	e59fc144 	ldr	ip, [pc, #324]	; 3030 <BootRom_ChangeSpiFlashClock+0x13c>
    2ee8:	e3a0b001 	mov	fp, #1
    2eec:	e5ccb000 	strb	fp, [ip]
    2ef0:	e12fff1e 	bx	lr

00002ef4 <BootRom_ChangeSpiFlashClock>:
    2ef4:	e59fc138 	ldr	ip, [pc, #312]	; 3034 <BootRom_ChangeSpiFlashClock+0x140>
    2ef8:	e3a0b004 	mov	fp, #4
    2efc:	e5ccb000 	strb	fp, [ip]
    2f00:	e59fc12c 	ldr	ip, [pc, #300]	; 3034 <BootRom_ChangeSpiFlashClock+0x140>
    2f04:	e3a0b044 	mov	fp, #68	; 0x44
    2f08:	e5ccb000 	strb	fp, [ip]
    2f0c:	e59fc124 	ldr	ip, [pc, #292]	; 3038 <BootRom_ChangeSpiFlashClock+0x144>
    2f10:	e3a0b080 	mov	fp, #128	; 0x80
    2f14:	e5ccb000 	strb	fp, [ip]
    2f18:	e12fff1e 	bx	lr
    2f1c:	1f201640 	.word	0x1f201640
    2f20:	1f201641 	.word	0x1f201641
    2f24:	1f20164d 	.word	0x1f20164d
    2f28:	1f201650 	.word	0x1f201650
    2f2c:	1f201651 	.word	0x1f201651
    2f30:	1f201658 	.word	0x1f201658
    2f34:	1f20165c 	.word	0x1f20165c
    2f38:	1f201668 	.word	0x1f201668
    2f3c:	1f201669 	.word	0x1f201669
    2f40:	1f201680 	.word	0x1f201680
    2f44:	1f201681 	.word	0x1f201681
    2f48:	1f201684 	.word	0x1f201684
    2f4c:	1f201685 	.word	0x1f201685
    2f50:	1f201688 	.word	0x1f201688
    2f54:	1f201689 	.word	0x1f201689
    2f58:	1f20168c 	.word	0x1f20168c
    2f5c:	1f20168d 	.word	0x1f20168d
    2f60:	1f201690 	.word	0x1f201690
    2f64:	1f201691 	.word	0x1f201691
    2f68:	1f201694 	.word	0x1f201694
    2f6c:	1f201698 	.word	0x1f201698
    2f70:	1f201699 	.word	0x1f201699
    2f74:	1f2016a0 	.word	0x1f2016a0
    2f78:	1f2016a1 	.word	0x1f2016a1
    2f7c:	1f2016a4 	.word	0x1f2016a4
    2f80:	1f2016a5 	.word	0x1f2016a5
    2f84:	1f2016a8 	.word	0x1f2016a8
    2f88:	1f2016a9 	.word	0x1f2016a9
    2f8c:	1f2016ad 	.word	0x1f2016ad
    2f90:	1f2016c0 	.word	0x1f2016c0
    2f94:	1f2016c4 	.word	0x1f2016c4
    2f98:	1f2016c5 	.word	0x1f2016c5
    2f9c:	1f2016d4 	.word	0x1f2016d4
    2fa0:	1f2016d5 	.word	0x1f2016d5
    2fa4:	1f2016e4 	.word	0x1f2016e4
    2fa8:	1f2016e9 	.word	0x1f2016e9
    2fac:	1f2016ec 	.word	0x1f2016ec
    2fb0:	1f2016ed 	.word	0x1f2016ed
    2fb4:	1f2016f0 	.word	0x1f2016f0
    2fb8:	1f2016f1 	.word	0x1f2016f1
    2fbc:	1f2016f4 	.word	0x1f2016f4
    2fc0:	1f2016f5 	.word	0x1f2016f5
    2fc4:	1f2016f8 	.word	0x1f2016f8
    2fc8:	1f201730 	.word	0x1f201730
    2fcc:	1f201731 	.word	0x1f201731
    2fd0:	1f201734 	.word	0x1f201734
    2fd4:	1f201735 	.word	0x1f201735
    2fd8:	1f2017b0 	.word	0x1f2017b0
    2fdc:	1f2017b1 	.word	0x1f2017b1
    2fe0:	1f201700 	.word	0x1f201700
    2fe4:	1f201701 	.word	0x1f201701
    2fe8:	1f201704 	.word	0x1f201704
    2fec:	1f201705 	.word	0x1f201705
    2ff0:	1f201708 	.word	0x1f201708
    2ff4:	1f20170c 	.word	0x1f20170c
    2ff8:	1f20170d 	.word	0x1f20170d
    2ffc:	1f201720 	.word	0x1f201720
    3000:	1f201780 	.word	0x1f201780
    3004:	1f201781 	.word	0x1f201781
    3008:	1f201784 	.word	0x1f201784
    300c:	1f201785 	.word	0x1f201785
    3010:	1f201788 	.word	0x1f201788
    3014:	1f201790 	.word	0x1f201790
    3018:	1f201791 	.word	0x1f201791
    301c:	1f203adc 	.word	0x1f203adc
    3020:	15000f80 	.word	0x15000f80
    3024:	1f201644 	.word	0x1f201644
    3028:	1f0015c4 	.word	0x1f0015c4
    302c:	1f0015c5 	.word	0x1f0015c5
    3030:	1f0015c8 	.word	0x1f0015c8
    3034:	1f001c81 	.word	0x1f001c81
    3038:	1f001c80 	.word	0x1f001c80

0000303c <BootRom_InitPeripheral>:
    303c:	e1a0d00e 	mov	sp, lr
    3040:	eb000060 	bl	31c8 <BootRom_InitUart>
    3044:	eb0000e5 	bl	33e0 <BootRom_EnableMcuAccess>
    3048:	eb000057 	bl	31ac <BootRom_InitRiu>
    304c:	eb000119 	bl	34b8 <BootRom_InitEmacTrimmingControl>
    3050:	e3a0005b 	mov	r0, #91	; 0x5b
    3054:	e1a0100e 	mov	r1, lr
    3058:	ebfffca6 	bl	22f8 <BootRom_WriteUartCharactor>
    305c:	e1a0e001 	mov	lr, r1
    3060:	e3a00041 	mov	r0, #65	; 0x41
    3064:	e1a0100e 	mov	r1, lr
    3068:	ebfffca2 	bl	22f8 <BootRom_WriteUartCharactor>
    306c:	e1a0e001 	mov	lr, r1
    3070:	e3a00054 	mov	r0, #84	; 0x54
    3074:	e1a0100e 	mov	r1, lr
    3078:	ebfffc9e 	bl	22f8 <BootRom_WriteUartCharactor>
    307c:	e1a0e001 	mov	lr, r1
    3080:	e3a0005d 	mov	r0, #93	; 0x5d
    3084:	e1a0100e 	mov	r1, lr
    3088:	ebfffc9a 	bl	22f8 <BootRom_WriteUartCharactor>
    308c:	e1a0e001 	mov	lr, r1
    3090:	e3a0005b 	mov	r0, #91	; 0x5b
    3094:	e1a0100e 	mov	r1, lr
    3098:	ebfffc96 	bl	22f8 <BootRom_WriteUartCharactor>
    309c:	e1a0e001 	mov	lr, r1
    30a0:	e3a0004d 	mov	r0, #77	; 0x4d
    30a4:	e1a0100e 	mov	r1, lr
    30a8:	ebfffc92 	bl	22f8 <BootRom_WriteUartCharactor>
    30ac:	e1a0e001 	mov	lr, r1
    30b0:	e3a00042 	mov	r0, #66	; 0x42
    30b4:	e1a0100e 	mov	r1, lr
    30b8:	ebfffc8e 	bl	22f8 <BootRom_WriteUartCharactor>
    30bc:	e1a0e001 	mov	lr, r1
    30c0:	e3a0005d 	mov	r0, #93	; 0x5d
    30c4:	e1a0100e 	mov	r1, lr
    30c8:	ebfffc8a 	bl	22f8 <BootRom_WriteUartCharactor>
    30cc:	e1a0e001 	mov	lr, r1
    30d0:	e3a0005b 	mov	r0, #91	; 0x5b
    30d4:	e1a0100e 	mov	r1, lr
    30d8:	ebfffc86 	bl	22f8 <BootRom_WriteUartCharactor>
    30dc:	e1a0e001 	mov	lr, r1
    30e0:	e3a00073 	mov	r0, #115	; 0x73
    30e4:	e1a0100e 	mov	r1, lr
    30e8:	ebfffc82 	bl	22f8 <BootRom_WriteUartCharactor>
    30ec:	e1a0e001 	mov	lr, r1
    30f0:	e3a00074 	mov	r0, #116	; 0x74
    30f4:	e1a0100e 	mov	r1, lr
    30f8:	ebfffc7e 	bl	22f8 <BootRom_WriteUartCharactor>
    30fc:	e1a0e001 	mov	lr, r1
    3100:	e3a00061 	mov	r0, #97	; 0x61
    3104:	e1a0100e 	mov	r1, lr
    3108:	ebfffc7a 	bl	22f8 <BootRom_WriteUartCharactor>
    310c:	e1a0e001 	mov	lr, r1
    3110:	e3a00072 	mov	r0, #114	; 0x72
    3114:	e1a0100e 	mov	r1, lr
    3118:	ebfffc76 	bl	22f8 <BootRom_WriteUartCharactor>
    311c:	e1a0e001 	mov	lr, r1
    3120:	e3a00074 	mov	r0, #116	; 0x74
    3124:	e1a0100e 	mov	r1, lr
    3128:	ebfffc72 	bl	22f8 <BootRom_WriteUartCharactor>
    312c:	e1a0e001 	mov	lr, r1
    3130:	e3a00020 	mov	r0, #32
    3134:	e1a0100e 	mov	r1, lr
    3138:	ebfffc6e 	bl	22f8 <BootRom_WriteUartCharactor>
    313c:	e1a0e001 	mov	lr, r1
    3140:	e3a00073 	mov	r0, #115	; 0x73
    3144:	e1a0100e 	mov	r1, lr
    3148:	ebfffc6a 	bl	22f8 <BootRom_WriteUartCharactor>
    314c:	e1a0e001 	mov	lr, r1
    3150:	e3a00062 	mov	r0, #98	; 0x62
    3154:	e1a0100e 	mov	r1, lr
    3158:	ebfffc66 	bl	22f8 <BootRom_WriteUartCharactor>
    315c:	e1a0e001 	mov	lr, r1
    3160:	e3a0005d 	mov	r0, #93	; 0x5d
    3164:	e1a0100e 	mov	r1, lr
    3168:	ebfffc62 	bl	22f8 <BootRom_WriteUartCharactor>
    316c:	e1a0e001 	mov	lr, r1
    3170:	e3a0005b 	mov	r0, #91	; 0x5b
    3174:	e1a0100e 	mov	r1, lr
    3178:	ebfffc5e 	bl	22f8 <BootRom_WriteUartCharactor>
    317c:	e1a0e001 	mov	lr, r1
    3180:	e3a00030 	mov	r0, #48	; 0x30
    3184:	e1a0100e 	mov	r1, lr
    3188:	ebfffc5a 	bl	22f8 <BootRom_WriteUartCharactor>
    318c:	e1a0e001 	mov	lr, r1
    3190:	e3a0005d 	mov	r0, #93	; 0x5d
    3194:	e1a0100e 	mov	r1, lr
    3198:	ebfffc56 	bl	22f8 <BootRom_WriteUartCharactor>
    319c:	e1a0e001 	mov	lr, r1
    31a0:	eb00009e 	bl	3420 <BootRom_InitUsb30Gpio>
    31a4:	e1a0e00d 	mov	lr, sp
    31a8:	e12fff1e 	bx	lr

000031ac <BootRom_InitRiu>:
    31ac:	e59fc37c 	ldr	ip, [pc, #892]	; 3530 <BootRom_InitEmacTrimmingControlExit+0x4>
    31b0:	e59c3000 	ldr	r3, [ip]
    31b4:	e3a04902 	mov	r4, #32768	; 0x8000
    31b8:	e1833004 	orr	r3, r3, r4
    31bc:	e59fc36c 	ldr	ip, [pc, #876]	; 3530 <BootRom_InitEmacTrimmingControlExit+0x4>
    31c0:	e58c3000 	str	r3, [ip]
    31c4:	e12fff1e 	bx	lr

000031c8 <BootRom_InitUart>:
    31c8:	e59fc364 	ldr	ip, [pc, #868]	; 3534 <BootRom_InitEmacTrimmingControlExit+0x8>
    31cc:	e59fb364 	ldr	fp, [pc, #868]	; 3538 <BootRom_InitEmacTrimmingControlExit+0xc>
    31d0:	e58cb000 	str	fp, [ip]
    31d4:	e59fc360 	ldr	ip, [pc, #864]	; 353c <BootRom_InitEmacTrimmingControlExit+0x10>
    31d8:	e59c0000 	ldr	r0, [ip]
    31dc:	e3800b02 	orr	r0, r0, #2048	; 0x800
    31e0:	e59fc354 	ldr	ip, [pc, #852]	; 353c <BootRom_InitEmacTrimmingControlExit+0x10>
    31e4:	e58c0000 	str	r0, [ip]
    31e8:	e59fc350 	ldr	ip, [pc, #848]	; 3540 <BootRom_InitEmacTrimmingControlExit+0x14>
    31ec:	e59c0000 	ldr	r0, [ip]
    31f0:	e3800004 	orr	r0, r0, #4
    31f4:	e59fc344 	ldr	ip, [pc, #836]	; 3540 <BootRom_InitEmacTrimmingControlExit+0x14>
    31f8:	e58c0000 	str	r0, [ip]
    31fc:	e59fc33c 	ldr	ip, [pc, #828]	; 3540 <BootRom_InitEmacTrimmingControlExit+0x14>
    3200:	e59fb33c 	ldr	fp, [pc, #828]	; 3544 <BootRom_InitEmacTrimmingControlExit+0x18>
    3204:	e58cb000 	str	fp, [ip]
    3208:	e59fc338 	ldr	ip, [pc, #824]	; 3548 <BootRom_InitEmacTrimmingControlExit+0x1c>
    320c:	e3a0b000 	mov	fp, #0
    3210:	e58cb000 	str	fp, [ip]
    3214:	e59fc330 	ldr	ip, [pc, #816]	; 354c <BootRom_InitEmacTrimmingControlExit+0x20>
    3218:	e59c0000 	ldr	r0, [ip]
    321c:	e3800c03 	orr	r0, r0, #768	; 0x300
    3220:	e59fc324 	ldr	ip, [pc, #804]	; 354c <BootRom_InitEmacTrimmingControlExit+0x20>
    3224:	e58c0000 	str	r0, [ip]
    3228:	e59fc320 	ldr	ip, [pc, #800]	; 3550 <BootRom_InitEmacTrimmingControlExit+0x24>
    322c:	e59c0000 	ldr	r0, [ip]
    3230:	e3800080 	orr	r0, r0, #128	; 0x80
    3234:	e59fc314 	ldr	ip, [pc, #788]	; 3550 <BootRom_InitEmacTrimmingControlExit+0x24>
    3238:	e58c0000 	str	r0, [ip]
    323c:	e59fc310 	ldr	ip, [pc, #784]	; 3554 <BootRom_InitEmacTrimmingControlExit+0x28>
    3240:	e3a0b042 	mov	fp, #66	; 0x42
    3244:	e58cb000 	str	fp, [ip]
    3248:	e59fc308 	ldr	ip, [pc, #776]	; 3558 <BootRom_InitEmacTrimmingControlExit+0x2c>
    324c:	e3a0b000 	mov	fp, #0
    3250:	e58cb000 	str	fp, [ip]
    3254:	e59fc2f4 	ldr	ip, [pc, #756]	; 3550 <BootRom_InitEmacTrimmingControlExit+0x24>
    3258:	e59c0000 	ldr	r0, [ip]
    325c:	e59f12f8 	ldr	r1, [pc, #760]	; 355c <BootRom_InitEmacTrimmingControlExit+0x30>
    3260:	e0000001 	and	r0, r0, r1
    3264:	e59fc2e4 	ldr	ip, [pc, #740]	; 3550 <BootRom_InitEmacTrimmingControlExit+0x24>
    3268:	e58c0000 	str	r0, [ip]
    326c:	e59fc2ec 	ldr	ip, [pc, #748]	; 3560 <BootRom_InitEmacTrimmingControlExit+0x34>
    3270:	e3a0b000 	mov	fp, #0
    3274:	e58cb000 	str	fp, [ip]
    3278:	e59fc2e0 	ldr	ip, [pc, #736]	; 3560 <BootRom_InitEmacTrimmingControlExit+0x34>
    327c:	e3a0b007 	mov	fp, #7
    3280:	e58cb000 	str	fp, [ip]
    3284:	e59fc2c4 	ldr	ip, [pc, #708]	; 3550 <BootRom_InitEmacTrimmingControlExit+0x24>
    3288:	e3a0b000 	mov	fp, #0
    328c:	e58cb000 	str	fp, [ip]
    3290:	e59fc2b8 	ldr	ip, [pc, #696]	; 3550 <BootRom_InitEmacTrimmingControlExit+0x24>
    3294:	e3a0b003 	mov	fp, #3
    3298:	e58cb000 	str	fp, [ip]
    329c:	e59fc2c0 	ldr	ip, [pc, #704]	; 3564 <BootRom_InitEmacTrimmingControlExit+0x38>
    32a0:	e3a0b000 	mov	fp, #0
    32a4:	e58cb000 	str	fp, [ip]
    32a8:	e59fc2a8 	ldr	ip, [pc, #680]	; 3558 <BootRom_InitEmacTrimmingControlExit+0x2c>
    32ac:	e3a0b000 	mov	fp, #0
    32b0:	e58cb000 	str	fp, [ip]
    32b4:	e59fc2ac 	ldr	ip, [pc, #684]	; 3568 <BootRom_InitEmacTrimmingControlExit+0x3c>
    32b8:	e59c0000 	ldr	r0, [ip]
    32bc:	e3800080 	orr	r0, r0, #128	; 0x80
    32c0:	e59fc2a0 	ldr	ip, [pc, #672]	; 3568 <BootRom_InitEmacTrimmingControlExit+0x3c>
    32c4:	e58c0000 	str	r0, [ip]
    32c8:	e59fc29c 	ldr	ip, [pc, #668]	; 356c <BootRom_InitEmacTrimmingControlExit+0x40>
    32cc:	e3a0b042 	mov	fp, #66	; 0x42
    32d0:	e58cb000 	str	fp, [ip]
    32d4:	e59fc294 	ldr	ip, [pc, #660]	; 3570 <BootRom_InitEmacTrimmingControlExit+0x44>
    32d8:	e3a0b000 	mov	fp, #0
    32dc:	e58cb000 	str	fp, [ip]
    32e0:	e59fc280 	ldr	ip, [pc, #640]	; 3568 <BootRom_InitEmacTrimmingControlExit+0x3c>
    32e4:	e59c0000 	ldr	r0, [ip]
    32e8:	e59f126c 	ldr	r1, [pc, #620]	; 355c <BootRom_InitEmacTrimmingControlExit+0x30>
    32ec:	e0000001 	and	r0, r0, r1
    32f0:	e59fc270 	ldr	ip, [pc, #624]	; 3568 <BootRom_InitEmacTrimmingControlExit+0x3c>
    32f4:	e58c0000 	str	r0, [ip]
    32f8:	e59fc274 	ldr	ip, [pc, #628]	; 3574 <BootRom_InitEmacTrimmingControlExit+0x48>
    32fc:	e3a0b000 	mov	fp, #0
    3300:	e58cb000 	str	fp, [ip]
    3304:	e59fc268 	ldr	ip, [pc, #616]	; 3574 <BootRom_InitEmacTrimmingControlExit+0x48>
    3308:	e3a0b007 	mov	fp, #7
    330c:	e58cb000 	str	fp, [ip]
    3310:	e59fc250 	ldr	ip, [pc, #592]	; 3568 <BootRom_InitEmacTrimmingControlExit+0x3c>
    3314:	e3a0b000 	mov	fp, #0
    3318:	e58cb000 	str	fp, [ip]
    331c:	e59fc244 	ldr	ip, [pc, #580]	; 3568 <BootRom_InitEmacTrimmingControlExit+0x3c>
    3320:	e3a0b003 	mov	fp, #3
    3324:	e58cb000 	str	fp, [ip]
    3328:	e59fc248 	ldr	ip, [pc, #584]	; 3578 <BootRom_InitEmacTrimmingControlExit+0x4c>
    332c:	e3a0b000 	mov	fp, #0
    3330:	e58cb000 	str	fp, [ip]
    3334:	e59fc234 	ldr	ip, [pc, #564]	; 3570 <BootRom_InitEmacTrimmingControlExit+0x44>
    3338:	e3a0b000 	mov	fp, #0
    333c:	e58cb000 	str	fp, [ip]
    3340:	e59fc224 	ldr	ip, [pc, #548]	; 356c <BootRom_InitEmacTrimmingControlExit+0x40>
    3344:	e3a0b055 	mov	fp, #85	; 0x55
    3348:	e5ccb000 	strb	fp, [ip]
    334c:	e59fc218 	ldr	ip, [pc, #536]	; 356c <BootRom_InitEmacTrimmingControlExit+0x40>
    3350:	e3a0b041 	mov	fp, #65	; 0x41
    3354:	e5ccb000 	strb	fp, [ip]
    3358:	e59fc20c 	ldr	ip, [pc, #524]	; 356c <BootRom_InitEmacTrimmingControlExit+0x40>
    335c:	e3a0b052 	mov	fp, #82	; 0x52
    3360:	e5ccb000 	strb	fp, [ip]
    3364:	e59fc200 	ldr	ip, [pc, #512]	; 356c <BootRom_InitEmacTrimmingControlExit+0x40>
    3368:	e3a0b054 	mov	fp, #84	; 0x54
    336c:	e5ccb000 	strb	fp, [ip]
    3370:	e59fc1f4 	ldr	ip, [pc, #500]	; 356c <BootRom_InitEmacTrimmingControlExit+0x40>
    3374:	e3a0b05f 	mov	fp, #95	; 0x5f
    3378:	e5ccb000 	strb	fp, [ip]
    337c:	e59fc1e8 	ldr	ip, [pc, #488]	; 356c <BootRom_InitEmacTrimmingControlExit+0x40>
    3380:	e3a0b031 	mov	fp, #49	; 0x31
    3384:	e5ccb000 	strb	fp, [ip]
    3388:	e59fc1dc 	ldr	ip, [pc, #476]	; 356c <BootRom_InitEmacTrimmingControlExit+0x40>
    338c:	e3a0b031 	mov	fp, #49	; 0x31
    3390:	e5ccb000 	strb	fp, [ip]
    3394:	e59fc1d0 	ldr	ip, [pc, #464]	; 356c <BootRom_InitEmacTrimmingControlExit+0x40>
    3398:	e3a0b035 	mov	fp, #53	; 0x35
    339c:	e5ccb000 	strb	fp, [ip]
    33a0:	e59fc1c4 	ldr	ip, [pc, #452]	; 356c <BootRom_InitEmacTrimmingControlExit+0x40>
    33a4:	e3a0b032 	mov	fp, #50	; 0x32
    33a8:	e5ccb000 	strb	fp, [ip]
    33ac:	e59fc1b8 	ldr	ip, [pc, #440]	; 356c <BootRom_InitEmacTrimmingControlExit+0x40>
    33b0:	e3a0b030 	mov	fp, #48	; 0x30
    33b4:	e5ccb000 	strb	fp, [ip]
    33b8:	e59fc1ac 	ldr	ip, [pc, #428]	; 356c <BootRom_InitEmacTrimmingControlExit+0x40>
    33bc:	e3a0b030 	mov	fp, #48	; 0x30
    33c0:	e5ccb000 	strb	fp, [ip]
    33c4:	e59fc1a0 	ldr	ip, [pc, #416]	; 356c <BootRom_InitEmacTrimmingControlExit+0x40>
    33c8:	e3a0b00a 	mov	fp, #10
    33cc:	e5ccb000 	strb	fp, [ip]
    33d0:	e59fc194 	ldr	ip, [pc, #404]	; 356c <BootRom_InitEmacTrimmingControlExit+0x40>
    33d4:	e3a0b00d 	mov	fp, #13
    33d8:	e5ccb000 	strb	fp, [ip]
    33dc:	e12fff1e 	bx	lr

000033e0 <BootRom_EnableMcuAccess>:
    33e0:	e59fc194 	ldr	ip, [pc, #404]	; 357c <BootRom_InitEmacTrimmingControlExit+0x50>
    33e4:	e3a0b004 	mov	fp, #4
    33e8:	e58cb000 	str	fp, [ip]
    33ec:	e59fc18c 	ldr	ip, [pc, #396]	; 3580 <BootRom_InitEmacTrimmingControlExit+0x54>
    33f0:	e59fb18c 	ldr	fp, [pc, #396]	; 3584 <BootRom_InitEmacTrimmingControlExit+0x58>
    33f4:	e58cb000 	str	fp, [ip]
    33f8:	e59fc188 	ldr	ip, [pc, #392]	; 3588 <BootRom_InitEmacTrimmingControlExit+0x5c>
    33fc:	e3a0b010 	mov	fp, #16
    3400:	e58cb000 	str	fp, [ip]
    3404:	e59fc180 	ldr	ip, [pc, #384]	; 358c <BootRom_InitEmacTrimmingControlExit+0x60>
    3408:	e59fb180 	ldr	fp, [pc, #384]	; 3590 <BootRom_InitEmacTrimmingControlExit+0x64>
    340c:	e58cb000 	str	fp, [ip]
    3410:	e59fc17c 	ldr	ip, [pc, #380]	; 3594 <BootRom_InitEmacTrimmingControlExit+0x68>
    3414:	e59fb17c 	ldr	fp, [pc, #380]	; 3598 <BootRom_InitEmacTrimmingControlExit+0x6c>
    3418:	e58cb000 	str	fp, [ip]
    341c:	e12fff1e 	bx	lr

00003420 <BootRom_InitUsb30Gpio>:
    3420:	e59fc174 	ldr	ip, [pc, #372]	; 359c <BootRom_InitEmacTrimmingControlExit+0x70>
    3424:	e59fb174 	ldr	fp, [pc, #372]	; 35a0 <BootRom_InitEmacTrimmingControlExit+0x74>
    3428:	e58cb000 	str	fp, [ip]
    342c:	e59fc170 	ldr	ip, [pc, #368]	; 35a4 <BootRom_InitEmacTrimmingControlExit+0x78>
    3430:	e59c0000 	ldr	r0, [ip]
    3434:	e59f116c 	ldr	r1, [pc, #364]	; 35a8 <BootRom_InitEmacTrimmingControlExit+0x7c>
    3438:	e1c00001 	bic	r0, r0, r1
    343c:	e2800000 	add	r0, r0, #0
    3440:	e280008b 	add	r0, r0, #139	; 0x8b
    3444:	e2800000 	add	r0, r0, #0
    3448:	e59fc154 	ldr	ip, [pc, #340]	; 35a4 <BootRom_InitEmacTrimmingControlExit+0x78>
    344c:	e58c0000 	str	r0, [ip]
    3450:	e12fff1e 	bx	lr

00003454 <BootRom_InitTimer>:
    3454:	e59fc150 	ldr	ip, [pc, #336]	; 35ac <BootRom_InitEmacTrimmingControlExit+0x80>
    3458:	e59fb150 	ldr	fp, [pc, #336]	; 35b0 <BootRom_InitEmacTrimmingControlExit+0x84>
    345c:	e58cb000 	str	fp, [ip]
    3460:	e59fc14c 	ldr	ip, [pc, #332]	; 35b4 <BootRom_InitEmacTrimmingControlExit+0x88>
    3464:	e59fb144 	ldr	fp, [pc, #324]	; 35b0 <BootRom_InitEmacTrimmingControlExit+0x84>
    3468:	e58cb000 	str	fp, [ip]
    346c:	e59fc144 	ldr	ip, [pc, #324]	; 35b8 <BootRom_InitEmacTrimmingControlExit+0x8c>
    3470:	e59fb138 	ldr	fp, [pc, #312]	; 35b0 <BootRom_InitEmacTrimmingControlExit+0x84>
    3474:	e58cb000 	str	fp, [ip]
    3478:	e59fc13c 	ldr	ip, [pc, #316]	; 35bc <BootRom_InitEmacTrimmingControlExit+0x90>
    347c:	e59fb12c 	ldr	fp, [pc, #300]	; 35b0 <BootRom_InitEmacTrimmingControlExit+0x84>
    3480:	e58cb000 	str	fp, [ip]
    3484:	e59fc134 	ldr	ip, [pc, #308]	; 35c0 <BootRom_InitEmacTrimmingControlExit+0x94>
    3488:	e3a0b000 	mov	fp, #0
    348c:	e58cb000 	str	fp, [ip]
    3490:	e59fc128 	ldr	ip, [pc, #296]	; 35c0 <BootRom_InitEmacTrimmingControlExit+0x94>
    3494:	e3a0b001 	mov	fp, #1
    3498:	e58cb000 	str	fp, [ip]
    349c:	e59fc120 	ldr	ip, [pc, #288]	; 35c4 <BootRom_InitEmacTrimmingControlExit+0x98>
    34a0:	e3a0b000 	mov	fp, #0
    34a4:	e58cb000 	str	fp, [ip]
    34a8:	e59fc114 	ldr	ip, [pc, #276]	; 35c4 <BootRom_InitEmacTrimmingControlExit+0x98>
    34ac:	e3a0b001 	mov	fp, #1
    34b0:	e58cb000 	str	fp, [ip]
    34b4:	e12fff1e 	bx	lr

000034b8 <BootRom_InitEmacTrimmingControl>:
    34b8:	e59fc108 	ldr	ip, [pc, #264]	; 35c8 <BootRom_InitEmacTrimmingControlExit+0x9c>
    34bc:	e3a0b025 	mov	fp, #37	; 0x25
    34c0:	e58cb09c 	str	fp, [ip, #156]	; 0x9c
    34c4:	e3a0b001 	mov	fp, #1
    34c8:	e58cb098 	str	fp, [ip, #152]	; 0x98

000034cc <BootRom_InitEmacTrimmingControlLoop>:
    34cc:	e59cb098 	ldr	fp, [ip, #152]	; 0x98
    34d0:	e35b0000 	cmp	fp, #0
    34d4:	1afffffc 	bne	34cc <BootRom_InitEmacTrimmingControlLoop>
    34d8:	e59cb108 	ldr	fp, [ip, #264]	; 0x108
    34dc:	e59f10e8 	ldr	r1, [pc, #232]	; 35cc <BootRom_InitEmacTrimmingControlExit+0xa0>
    34e0:	e00b0001 	and	r0, fp, r1
    34e4:	e1a0172b 	lsr	r1, fp, #14
    34e8:	e2011003 	and	r1, r1, #3
    34ec:	e59cb10c 	ldr	fp, [ip, #268]	; 0x10c
    34f0:	e20bb003 	and	fp, fp, #3
    34f4:	e1a0b10b 	lsl	fp, fp, #2
    34f8:	e181100b 	orr	r1, r1, fp
    34fc:	e1a01401 	lsl	r1, r1, #8
    3500:	e59fc0c8 	ldr	ip, [pc, #200]	; 35d0 <BootRom_InitEmacTrimmingControlExit+0xa4>
    3504:	e59cb0c0 	ldr	fp, [ip, #192]	; 0xc0
    3508:	e3cbbc0f 	bic	fp, fp, #3840	; 0xf00
    350c:	e18bb001 	orr	fp, fp, r1
    3510:	e38bb004 	orr	fp, fp, #4
    3514:	e58cb0c0 	str	fp, [ip, #192]	; 0xc0
    3518:	e59cb0d0 	ldr	fp, [ip, #208]	; 0xd0
    351c:	e20bb903 	and	fp, fp, #49152	; 0xc000
    3520:	e18bb000 	orr	fp, fp, r0
    3524:	e38bb902 	orr	fp, fp, #32768	; 0x8000
    3528:	e58cb0d0 	str	fp, [ip, #208]	; 0xd0

0000352c <BootRom_InitEmacTrimmingControlExit>:
    352c:	e12fff1e 	bx	lr
    3530:	1f203104 	.word	0x1f203104
    3534:	1f20164c 	.word	0x1f20164c
    3538:	00000c01 	.word	0x00000c01
    353c:	1f001c24 	.word	0x1f001c24
    3540:	1f203d4c 	.word	0x1f203d4c
    3544:	00000504 	.word	0x00000504
    3548:	1f203d50 	.word	0x1f203d50
    354c:	1f203c08 	.word	0x1f203c08
    3550:	1f220c18 	.word	0x1f220c18
    3554:	1f220c00 	.word	0x1f220c00
    3558:	1f220c08 	.word	0x1f220c08
    355c:	0000ff7f 	.word	0x0000ff7f
    3560:	1f220c10 	.word	0x1f220c10
    3564:	1f220c20 	.word	0x1f220c20
    3568:	1f201318 	.word	0x1f201318
    356c:	1f201300 	.word	0x1f201300
    3570:	1f201308 	.word	0x1f201308
    3574:	1f201310 	.word	0x1f201310
    3578:	1f201320 	.word	0x1f201320
    357c:	1f005788 	.word	0x1f005788
    3580:	1f00578c 	.word	0x1f00578c
    3584:	00003c11 	.word	0x00003c11
    3588:	1f005790 	.word	0x1f005790
    358c:	1f005794 	.word	0x1f005794
    3590:	0000403c 	.word	0x0000403c
    3594:	1f005798 	.word	0x1f005798
    3598:	00000101 	.word	0x00000101
    359c:	1f244bf8 	.word	0x1f244bf8
    35a0:	0000102b 	.word	0x0000102b
    35a4:	1f244bfc 	.word	0x1f244bfc
    35a8:	00001fff 	.word	0x00001fff
    35ac:	1f006048 	.word	0x1f006048
    35b0:	0000ffff 	.word	0x0000ffff
    35b4:	1f00604c 	.word	0x1f00604c
    35b8:	1f006088 	.word	0x1f006088
    35bc:	1f00608c 	.word	0x1f00608c
    35c0:	1f006040 	.word	0x1f006040
    35c4:	1f006080 	.word	0x1f006080
    35c8:	1f004000 	.word	0x1f004000
    35cc:	00003fff 	.word	0x00003fff
    35d0:	1f006800 	.word	0x1f006800

000035d4 <MIU_MESSAGE_BIST0>:
    35d4:	00490042 	.word	0x00490042
    35d8:	00540053 	.word	0x00540053
    35dc:	002d0030 	.word	0x002d0030
	...

000035e2 <MIU_MESSAGE_BIST1>:
    35e2:	0042      	.short	0x0042
    35e4:	00530049 	.word	0x00530049
    35e8:	00310054 	.word	0x00310054
    35ec:	0000002d 	.word	0x0000002d

000035f0 <MIU_MESSAGE_AUTO_DQS0>:
    35f0:	00750041 	.word	0x00750041
    35f4:	006f0074 	.word	0x006f0074
    35f8:	00510044 	.word	0x00510044
    35fc:	00300053 	.word	0x00300053
    3600:	005b002d 	.word	0x005b002d
	...

00003606 <MIU_MESSAGE_AUTO_DQS1>:
    3606:	0041      	.short	0x0041
    3608:	00740075 	.word	0x00740075
    360c:	0044006f 	.word	0x0044006f
    3610:	00530051 	.word	0x00530051
    3614:	002d0031 	.word	0x002d0031
    3618:	0000005b 	.word	0x0000005b

0000361c <MIU_MESSAGE_DQS_1>:
    361c:	002d005d 	.word	0x002d005d
    3620:	0030005b 	.word	0x0030005b
    3624:	00000078 	.word	0x00000078

00003628 <MIU_MESSAGE_OK>:
    3628:	004b004f 	.word	0x004b004f
    362c:	000d000a 	.word	0x000d000a
	...

00003632 <MIU_MESSAGE_FAIL>:
    3632:	0046      	.short	0x0046
    3634:	00490041 	.word	0x00490041
    3638:	000a004c 	.word	0x000a004c
    363c:	0000000d 	.word	0x0000000d

00003640 <BootRom_InitMiu>:
    3640:	e1a0d00e 	mov	sp, lr
    3644:	e59f06bc 	ldr	r0, [pc, #1724]	; 3d08 <DELAYUS_78+0x10>
    3648:	ebfffa6c 	bl	2000 <MDrv_WriteRegTbl32>
    364c:	e59f06b8 	ldr	r0, [pc, #1720]	; 3d0c <DELAYUS_78+0x14>
    3650:	ebfffa6a 	bl	2000 <MDrv_WriteRegTbl32>
    3654:	e59fc6b4 	ldr	ip, [pc, #1716]	; 3d10 <DELAYUS_78+0x18>
    3658:	e59fb6b4 	ldr	fp, [pc, #1716]	; 3d14 <DELAYUS_78+0x1c>
    365c:	e58cb048 	str	fp, [ip, #72]	; 0x48
    3660:	e3a0b000 	mov	fp, #0
    3664:	e58cb04c 	str	fp, [ip, #76]	; 0x4c
    3668:	e3a0b002 	mov	fp, #2
    366c:	e58cb040 	str	fp, [ip, #64]	; 0x40

00003670 <DELAYUS_0>:
    3670:	e59cb044 	ldr	fp, [ip, #68]	; 0x44
    3674:	e25bb001 	subs	fp, fp, #1
    3678:	1afffffc 	bne	3670 <DELAYUS_0>
    367c:	e59fc694 	ldr	ip, [pc, #1684]	; 3d18 <DELAYUS_78+0x20>
    3680:	e3a0b0c0 	mov	fp, #192	; 0xc0
    3684:	e58cb000 	str	fp, [ip]
    3688:	e59fc688 	ldr	ip, [pc, #1672]	; 3d18 <DELAYUS_78+0x20>
    368c:	e59fb688 	ldr	fp, [pc, #1672]	; 3d1c <DELAYUS_78+0x24>
    3690:	e58cb000 	str	fp, [ip]
    3694:	e59fc674 	ldr	ip, [pc, #1652]	; 3d10 <DELAYUS_78+0x18>
    3698:	e59fb680 	ldr	fp, [pc, #1664]	; 3d20 <DELAYUS_78+0x28>
    369c:	e58cb048 	str	fp, [ip, #72]	; 0x48
    36a0:	e3a0b000 	mov	fp, #0
    36a4:	e58cb04c 	str	fp, [ip, #76]	; 0x4c
    36a8:	e3a0b002 	mov	fp, #2
    36ac:	e58cb040 	str	fp, [ip, #64]	; 0x40

000036b0 <DELAYUS_3>:
    36b0:	e59cb044 	ldr	fp, [ip, #68]	; 0x44
    36b4:	e25bb001 	subs	fp, fp, #1
    36b8:	1afffffc 	bne	36b0 <DELAYUS_3>
    36bc:	e59fc660 	ldr	ip, [pc, #1632]	; 3d24 <DELAYUS_78+0x2c>
    36c0:	e59fb660 	ldr	fp, [pc, #1632]	; 3d28 <DELAYUS_78+0x30>
    36c4:	e58cb000 	str	fp, [ip]
    36c8:	e59fc640 	ldr	ip, [pc, #1600]	; 3d10 <DELAYUS_78+0x18>
    36cc:	e3a0b00c 	mov	fp, #12
    36d0:	e58cb048 	str	fp, [ip, #72]	; 0x48
    36d4:	e3a0b000 	mov	fp, #0
    36d8:	e58cb04c 	str	fp, [ip, #76]	; 0x4c
    36dc:	e3a0b002 	mov	fp, #2
    36e0:	e58cb040 	str	fp, [ip, #64]	; 0x40

000036e4 <DELAYUS_5>:
    36e4:	e59cb044 	ldr	fp, [ip, #68]	; 0x44
    36e8:	e25bb001 	subs	fp, fp, #1
    36ec:	1afffffc 	bne	36e4 <DELAYUS_5>
    36f0:	e59fc62c 	ldr	ip, [pc, #1580]	; 3d24 <DELAYUS_78+0x2c>
    36f4:	e59fb630 	ldr	fp, [pc, #1584]	; 3d2c <DELAYUS_78+0x34>
    36f8:	e58cb000 	str	fp, [ip]
    36fc:	e59fc62c 	ldr	ip, [pc, #1580]	; 3d30 <DELAYUS_78+0x38>
    3700:	e3a0b000 	mov	fp, #0
    3704:	e58cb000 	str	fp, [ip]
    3708:	e59fc624 	ldr	ip, [pc, #1572]	; 3d34 <DELAYUS_78+0x3c>
    370c:	e59fb624 	ldr	fp, [pc, #1572]	; 3d38 <DELAYUS_78+0x40>
    3710:	e58cb000 	str	fp, [ip]
    3714:	e59fc620 	ldr	ip, [pc, #1568]	; 3d3c <DELAYUS_78+0x44>
    3718:	e3a0b000 	mov	fp, #0
    371c:	e58cb000 	str	fp, [ip]
    3720:	e59fc618 	ldr	ip, [pc, #1560]	; 3d40 <DELAYUS_78+0x48>
    3724:	e59fb618 	ldr	fp, [pc, #1560]	; 3d44 <DELAYUS_78+0x4c>
    3728:	e58cb000 	str	fp, [ip]
    372c:	e59fc5dc 	ldr	ip, [pc, #1500]	; 3d10 <DELAYUS_78+0x18>
    3730:	e3a0be96 	mov	fp, #2400	; 0x960
    3734:	e58cb048 	str	fp, [ip, #72]	; 0x48
    3738:	e3a0b000 	mov	fp, #0
    373c:	e58cb04c 	str	fp, [ip, #76]	; 0x4c
    3740:	e3a0b002 	mov	fp, #2
    3744:	e58cb040 	str	fp, [ip, #64]	; 0x40

00003748 <DELAYUS_11>:
    3748:	e59cb044 	ldr	fp, [ip, #68]	; 0x44
    374c:	e25bb001 	subs	fp, fp, #1
    3750:	1afffffc 	bne	3748 <DELAYUS_11>
    3754:	e59f05ec 	ldr	r0, [pc, #1516]	; 3d48 <DELAYUS_78+0x50>
    3758:	ebfffa28 	bl	2000 <MDrv_WriteRegTbl32>
    375c:	e59fc5ac 	ldr	ip, [pc, #1452]	; 3d10 <DELAYUS_78+0x18>
    3760:	e59fb5ac 	ldr	fp, [pc, #1452]	; 3d14 <DELAYUS_78+0x1c>
    3764:	e58cb048 	str	fp, [ip, #72]	; 0x48
    3768:	e3a0b000 	mov	fp, #0
    376c:	e58cb04c 	str	fp, [ip, #76]	; 0x4c
    3770:	e3a0b002 	mov	fp, #2
    3774:	e58cb040 	str	fp, [ip, #64]	; 0x40

00003778 <DELAYUS_12>:
    3778:	e59cb044 	ldr	fp, [ip, #68]	; 0x44
    377c:	e25bb001 	subs	fp, fp, #1
    3780:	1afffffc 	bne	3778 <DELAYUS_12>
    3784:	e59fc5c0 	ldr	ip, [pc, #1472]	; 3d4c <DELAYUS_78+0x54>
    3788:	e3a0b0c0 	mov	fp, #192	; 0xc0
    378c:	e58cb000 	str	fp, [ip]
    3790:	e59fc5b4 	ldr	ip, [pc, #1460]	; 3d4c <DELAYUS_78+0x54>
    3794:	e59fb580 	ldr	fp, [pc, #1408]	; 3d1c <DELAYUS_78+0x24>
    3798:	e58cb000 	str	fp, [ip]
    379c:	e59fc56c 	ldr	ip, [pc, #1388]	; 3d10 <DELAYUS_78+0x18>
    37a0:	e59fb578 	ldr	fp, [pc, #1400]	; 3d20 <DELAYUS_78+0x28>
    37a4:	e58cb048 	str	fp, [ip, #72]	; 0x48
    37a8:	e3a0b000 	mov	fp, #0
    37ac:	e58cb04c 	str	fp, [ip, #76]	; 0x4c
    37b0:	e3a0b002 	mov	fp, #2
    37b4:	e58cb040 	str	fp, [ip, #64]	; 0x40

000037b8 <DELAYUS_15>:
    37b8:	e59cb044 	ldr	fp, [ip, #68]	; 0x44
    37bc:	e25bb001 	subs	fp, fp, #1
    37c0:	1afffffc 	bne	37b8 <DELAYUS_15>
    37c4:	e59fc584 	ldr	ip, [pc, #1412]	; 3d50 <DELAYUS_78+0x58>
    37c8:	e59fb558 	ldr	fp, [pc, #1368]	; 3d28 <DELAYUS_78+0x30>
    37cc:	e58cb000 	str	fp, [ip]
    37d0:	e59fc538 	ldr	ip, [pc, #1336]	; 3d10 <DELAYUS_78+0x18>
    37d4:	e3a0b00c 	mov	fp, #12
    37d8:	e58cb048 	str	fp, [ip, #72]	; 0x48
    37dc:	e3a0b000 	mov	fp, #0
    37e0:	e58cb04c 	str	fp, [ip, #76]	; 0x4c
    37e4:	e3a0b002 	mov	fp, #2
    37e8:	e58cb040 	str	fp, [ip, #64]	; 0x40

000037ec <DELAYUS_17>:
    37ec:	e59cb044 	ldr	fp, [ip, #68]	; 0x44
    37f0:	e25bb001 	subs	fp, fp, #1
    37f4:	1afffffc 	bne	37ec <DELAYUS_17>
    37f8:	e59fc550 	ldr	ip, [pc, #1360]	; 3d50 <DELAYUS_78+0x58>
    37fc:	e59fb528 	ldr	fp, [pc, #1320]	; 3d2c <DELAYUS_78+0x34>
    3800:	e58cb000 	str	fp, [ip]
    3804:	e59fc548 	ldr	ip, [pc, #1352]	; 3d54 <DELAYUS_78+0x5c>
    3808:	e3a0b000 	mov	fp, #0
    380c:	e58cb000 	str	fp, [ip]
    3810:	e59fc540 	ldr	ip, [pc, #1344]	; 3d58 <DELAYUS_78+0x60>
    3814:	e59fb51c 	ldr	fp, [pc, #1308]	; 3d38 <DELAYUS_78+0x40>
    3818:	e58cb000 	str	fp, [ip]
    381c:	e59fc538 	ldr	ip, [pc, #1336]	; 3d5c <DELAYUS_78+0x64>
    3820:	e3a0b000 	mov	fp, #0
    3824:	e58cb000 	str	fp, [ip]
    3828:	e59fc530 	ldr	ip, [pc, #1328]	; 3d60 <DELAYUS_78+0x68>
    382c:	e59fb530 	ldr	fp, [pc, #1328]	; 3d64 <DELAYUS_78+0x6c>
    3830:	e58cb000 	str	fp, [ip]
    3834:	e59fc4d4 	ldr	ip, [pc, #1236]	; 3d10 <DELAYUS_78+0x18>
    3838:	e59fb528 	ldr	fp, [pc, #1320]	; 3d68 <DELAYUS_78+0x70>
    383c:	e58cb048 	str	fp, [ip, #72]	; 0x48
    3840:	e3a0b000 	mov	fp, #0
    3844:	e58cb04c 	str	fp, [ip, #76]	; 0x4c
    3848:	e3a0b002 	mov	fp, #2
    384c:	e58cb040 	str	fp, [ip, #64]	; 0x40

00003850 <DELAYUS_23>:
    3850:	e59cb044 	ldr	fp, [ip, #68]	; 0x44
    3854:	e25bb001 	subs	fp, fp, #1
    3858:	1afffffc 	bne	3850 <DELAYUS_23>
    385c:	e59fc508 	ldr	ip, [pc, #1288]	; 3d6c <DELAYUS_78+0x74>
    3860:	e3a0b03f 	mov	fp, #63	; 0x3f
    3864:	e58cb000 	str	fp, [ip]
    3868:	e59fc500 	ldr	ip, [pc, #1280]	; 3d70 <DELAYUS_78+0x78>
    386c:	e3a0b000 	mov	fp, #0
    3870:	e58cb000 	str	fp, [ip]
    3874:	e59fc4f4 	ldr	ip, [pc, #1268]	; 3d70 <DELAYUS_78+0x78>
    3878:	e3a0b008 	mov	fp, #8
    387c:	e58cb000 	str	fp, [ip]
    3880:	e59fc4e8 	ldr	ip, [pc, #1256]	; 3d70 <DELAYUS_78+0x78>
    3884:	e3a0b00c 	mov	fp, #12
    3888:	e58cb000 	str	fp, [ip]
    388c:	e59fc47c 	ldr	ip, [pc, #1148]	; 3d10 <DELAYUS_78+0x18>
    3890:	e59fb47c 	ldr	fp, [pc, #1148]	; 3d14 <DELAYUS_78+0x1c>
    3894:	e58cb048 	str	fp, [ip, #72]	; 0x48
    3898:	e3a0b000 	mov	fp, #0
    389c:	e58cb04c 	str	fp, [ip, #76]	; 0x4c
    38a0:	e3a0b002 	mov	fp, #2
    38a4:	e58cb040 	str	fp, [ip, #64]	; 0x40

000038a8 <DELAYUS_28>:
    38a8:	e59cb044 	ldr	fp, [ip, #68]	; 0x44
    38ac:	e25bb001 	subs	fp, fp, #1
    38b0:	1afffffc 	bne	38a8 <DELAYUS_28>
    38b4:	e59fc4b4 	ldr	ip, [pc, #1204]	; 3d70 <DELAYUS_78+0x78>
    38b8:	e3a0b00e 	mov	fp, #14
    38bc:	e58cb000 	str	fp, [ip]
    38c0:	e59fc448 	ldr	ip, [pc, #1096]	; 3d10 <DELAYUS_78+0x18>
    38c4:	e59fb49c 	ldr	fp, [pc, #1180]	; 3d68 <DELAYUS_78+0x70>
    38c8:	e58cb048 	str	fp, [ip, #72]	; 0x48
    38cc:	e3a0b000 	mov	fp, #0
    38d0:	e58cb04c 	str	fp, [ip, #76]	; 0x4c
    38d4:	e3a0b002 	mov	fp, #2
    38d8:	e58cb040 	str	fp, [ip, #64]	; 0x40

000038dc <DELAYUS_30>:
    38dc:	e59cb044 	ldr	fp, [ip, #68]	; 0x44
    38e0:	e25bb001 	subs	fp, fp, #1
    38e4:	1afffffc 	bne	38dc <DELAYUS_30>
    38e8:	e59fc480 	ldr	ip, [pc, #1152]	; 3d70 <DELAYUS_78+0x78>
    38ec:	e3a0b01f 	mov	fp, #31
    38f0:	e58cb000 	str	fp, [ip]
    38f4:	e59fc414 	ldr	ip, [pc, #1044]	; 3d10 <DELAYUS_78+0x18>
    38f8:	e3a0be96 	mov	fp, #2400	; 0x960
    38fc:	e58cb048 	str	fp, [ip, #72]	; 0x48
    3900:	e3a0b000 	mov	fp, #0
    3904:	e58cb04c 	str	fp, [ip, #76]	; 0x4c
    3908:	e3a0b002 	mov	fp, #2
    390c:	e58cb040 	str	fp, [ip, #64]	; 0x40

00003910 <DELAYUS_32>:
    3910:	e59cb044 	ldr	fp, [ip, #68]	; 0x44
    3914:	e25bb001 	subs	fp, fp, #1
    3918:	1afffffc 	bne	3910 <DELAYUS_32>
    391c:	e59fc450 	ldr	ip, [pc, #1104]	; 3d74 <DELAYUS_78+0x7c>
    3920:	e3a0b000 	mov	fp, #0
    3924:	e58cb000 	str	fp, [ip]
    3928:	e59fc448 	ldr	ip, [pc, #1096]	; 3d78 <DELAYUS_78+0x80>
    392c:	e3a0b000 	mov	fp, #0
    3930:	e58cb000 	str	fp, [ip]
    3934:	e59fc440 	ldr	ip, [pc, #1088]	; 3d7c <DELAYUS_78+0x84>
    3938:	e3a0b000 	mov	fp, #0
    393c:	e58cb000 	str	fp, [ip]
    3940:	e59fc438 	ldr	ip, [pc, #1080]	; 3d80 <DELAYUS_78+0x88>
    3944:	e3a0b000 	mov	fp, #0
    3948:	e58cb000 	str	fp, [ip]
    394c:	e59fc430 	ldr	ip, [pc, #1072]	; 3d84 <DELAYUS_78+0x8c>
    3950:	e3a0b0ed 	mov	fp, #237	; 0xed
    3954:	e58cb000 	str	fp, [ip]
    3958:	e59fc428 	ldr	ip, [pc, #1064]	; 3d88 <DELAYUS_78+0x90>
    395c:	e3a0b007 	mov	fp, #7
    3960:	e58cb000 	str	fp, [ip]
    3964:	e59fc420 	ldr	ip, [pc, #1056]	; 3d8c <DELAYUS_78+0x94>
    3968:	e3a0b001 	mov	fp, #1
    396c:	e58cb000 	str	fp, [ip]
    3970:	e59fc418 	ldr	ip, [pc, #1048]	; 3d90 <DELAYUS_78+0x98>
    3974:	e3a0b000 	mov	fp, #0
    3978:	e58cb000 	str	fp, [ip]
    397c:	e59fc40c 	ldr	ip, [pc, #1036]	; 3d90 <DELAYUS_78+0x98>
    3980:	e3a0bc02 	mov	fp, #512	; 0x200
    3984:	e58cb000 	str	fp, [ip]
    3988:	e59fc400 	ldr	ip, [pc, #1024]	; 3d90 <DELAYUS_78+0x98>
    398c:	e59fb400 	ldr	fp, [pc, #1024]	; 3d94 <DELAYUS_78+0x9c>
    3990:	e58cb000 	str	fp, [ip]
    3994:	e59fc3e8 	ldr	ip, [pc, #1000]	; 3d84 <DELAYUS_78+0x8c>
    3998:	e3a0b0af 	mov	fp, #175	; 0xaf
    399c:	e58cb000 	str	fp, [ip]
    39a0:	e59fc3e0 	ldr	ip, [pc, #992]	; 3d88 <DELAYUS_78+0x90>
    39a4:	e3a0b003 	mov	fp, #3
    39a8:	e58cb000 	str	fp, [ip]
    39ac:	e59fc3dc 	ldr	ip, [pc, #988]	; 3d90 <DELAYUS_78+0x98>
    39b0:	e3a0b000 	mov	fp, #0
    39b4:	e58cb000 	str	fp, [ip]
    39b8:	e59fc3d0 	ldr	ip, [pc, #976]	; 3d90 <DELAYUS_78+0x98>
    39bc:	e3a0bc02 	mov	fp, #512	; 0x200
    39c0:	e58cb000 	str	fp, [ip]
    39c4:	e59fc3c4 	ldr	ip, [pc, #964]	; 3d90 <DELAYUS_78+0x98>
    39c8:	e59fb3c4 	ldr	fp, [pc, #964]	; 3d94 <DELAYUS_78+0x9c>
    39cc:	e58cb000 	str	fp, [ip]
    39d0:	e59fc3b8 	ldr	ip, [pc, #952]	; 3d90 <DELAYUS_78+0x98>
    39d4:	e3a0b000 	mov	fp, #0
    39d8:	e58cb000 	str	fp, [ip]
    39dc:	e59fc3b4 	ldr	ip, [pc, #948]	; 3d98 <DELAYUS_78+0xa0>
    39e0:	e3a0b031 	mov	fp, #49	; 0x31
    39e4:	e58cb000 	str	fp, [ip]

000039e8 <CheckMiu0Init>:
    39e8:	e59fc380 	ldr	ip, [pc, #896]	; 3d70 <DELAYUS_78+0x78>
    39ec:	e59c1000 	ldr	r1, [ip]
    39f0:	e2011902 	and	r1, r1, #32768	; 0x8000
    39f4:	e3510000 	cmp	r1, #0
    39f8:	0afffffa 	beq	39e8 <CheckMiu0Init>
    39fc:	e59fc398 	ldr	ip, [pc, #920]	; 3d9c <DELAYUS_78+0xa4>
    3a00:	e3a0b03f 	mov	fp, #63	; 0x3f
    3a04:	e58cb000 	str	fp, [ip]
    3a08:	e59fc390 	ldr	ip, [pc, #912]	; 3da0 <DELAYUS_78+0xa8>
    3a0c:	e3a0b000 	mov	fp, #0
    3a10:	e58cb000 	str	fp, [ip]
    3a14:	e59fc384 	ldr	ip, [pc, #900]	; 3da0 <DELAYUS_78+0xa8>
    3a18:	e3a0b008 	mov	fp, #8
    3a1c:	e58cb000 	str	fp, [ip]
    3a20:	e59fc378 	ldr	ip, [pc, #888]	; 3da0 <DELAYUS_78+0xa8>
    3a24:	e3a0b00c 	mov	fp, #12
    3a28:	e58cb000 	str	fp, [ip]
    3a2c:	e59fc2dc 	ldr	ip, [pc, #732]	; 3d10 <DELAYUS_78+0x18>
    3a30:	e59fb2dc 	ldr	fp, [pc, #732]	; 3d14 <DELAYUS_78+0x1c>
    3a34:	e58cb048 	str	fp, [ip, #72]	; 0x48
    3a38:	e3a0b000 	mov	fp, #0
    3a3c:	e58cb04c 	str	fp, [ip, #76]	; 0x4c
    3a40:	e3a0b002 	mov	fp, #2
    3a44:	e58cb040 	str	fp, [ip, #64]	; 0x40

00003a48 <DELAYUS_55>:
    3a48:	e59cb044 	ldr	fp, [ip, #68]	; 0x44
    3a4c:	e25bb001 	subs	fp, fp, #1
    3a50:	1afffffc 	bne	3a48 <DELAYUS_55>
    3a54:	e59fc344 	ldr	ip, [pc, #836]	; 3da0 <DELAYUS_78+0xa8>
    3a58:	e3a0b00e 	mov	fp, #14
    3a5c:	e58cb000 	str	fp, [ip]
    3a60:	e59fc2a8 	ldr	ip, [pc, #680]	; 3d10 <DELAYUS_78+0x18>
    3a64:	e59fb2fc 	ldr	fp, [pc, #764]	; 3d68 <DELAYUS_78+0x70>
    3a68:	e58cb048 	str	fp, [ip, #72]	; 0x48
    3a6c:	e3a0b000 	mov	fp, #0
    3a70:	e58cb04c 	str	fp, [ip, #76]	; 0x4c
    3a74:	e3a0b002 	mov	fp, #2
    3a78:	e58cb040 	str	fp, [ip, #64]	; 0x40

00003a7c <DELAYUS_57>:
    3a7c:	e59cb044 	ldr	fp, [ip, #68]	; 0x44
    3a80:	e25bb001 	subs	fp, fp, #1
    3a84:	1afffffc 	bne	3a7c <DELAYUS_57>
    3a88:	e59fc310 	ldr	ip, [pc, #784]	; 3da0 <DELAYUS_78+0xa8>
    3a8c:	e3a0b01f 	mov	fp, #31
    3a90:	e58cb000 	str	fp, [ip]
    3a94:	e59fc274 	ldr	ip, [pc, #628]	; 3d10 <DELAYUS_78+0x18>
    3a98:	e3a0be96 	mov	fp, #2400	; 0x960
    3a9c:	e58cb048 	str	fp, [ip, #72]	; 0x48
    3aa0:	e3a0b000 	mov	fp, #0
    3aa4:	e58cb04c 	str	fp, [ip, #76]	; 0x4c
    3aa8:	e3a0b002 	mov	fp, #2
    3aac:	e58cb040 	str	fp, [ip, #64]	; 0x40

00003ab0 <DELAYUS_59>:
    3ab0:	e59cb044 	ldr	fp, [ip, #68]	; 0x44
    3ab4:	e25bb001 	subs	fp, fp, #1
    3ab8:	1afffffc 	bne	3ab0 <DELAYUS_59>
    3abc:	e59fc2e0 	ldr	ip, [pc, #736]	; 3da4 <DELAYUS_78+0xac>
    3ac0:	e3a0b0ef 	mov	fp, #239	; 0xef
    3ac4:	e58cb000 	str	fp, [ip]
    3ac8:	e59fc2d8 	ldr	ip, [pc, #728]	; 3da8 <DELAYUS_78+0xb0>
    3acc:	e3a0b007 	mov	fp, #7
    3ad0:	e58cb000 	str	fp, [ip]
    3ad4:	e59fc2d0 	ldr	ip, [pc, #720]	; 3dac <DELAYUS_78+0xb4>
    3ad8:	e3a0b902 	mov	fp, #32768	; 0x8000
    3adc:	e58cb000 	str	fp, [ip]
    3ae0:	e59fc2a4 	ldr	ip, [pc, #676]	; 3d8c <DELAYUS_78+0x94>
    3ae4:	e3a0b001 	mov	fp, #1
    3ae8:	e58cb000 	str	fp, [ip]
    3aec:	e59fc29c 	ldr	ip, [pc, #668]	; 3d90 <DELAYUS_78+0x98>
    3af0:	e3a0b000 	mov	fp, #0
    3af4:	e58cb000 	str	fp, [ip]
    3af8:	e59fc290 	ldr	ip, [pc, #656]	; 3d90 <DELAYUS_78+0x98>
    3afc:	e3a0bc02 	mov	fp, #512	; 0x200
    3b00:	e58cb000 	str	fp, [ip]
    3b04:	e59fc284 	ldr	ip, [pc, #644]	; 3d90 <DELAYUS_78+0x98>
    3b08:	e59fb284 	ldr	fp, [pc, #644]	; 3d94 <DELAYUS_78+0x9c>
    3b0c:	e58cb000 	str	fp, [ip]
    3b10:	e59fc28c 	ldr	ip, [pc, #652]	; 3da4 <DELAYUS_78+0xac>
    3b14:	e3a0b0af 	mov	fp, #175	; 0xaf
    3b18:	e58cb000 	str	fp, [ip]
    3b1c:	e59fc284 	ldr	ip, [pc, #644]	; 3da8 <DELAYUS_78+0xb0>
    3b20:	e3a0b003 	mov	fp, #3
    3b24:	e58cb000 	str	fp, [ip]
    3b28:	e59fc260 	ldr	ip, [pc, #608]	; 3d90 <DELAYUS_78+0x98>
    3b2c:	e3a0b000 	mov	fp, #0
    3b30:	e58cb000 	str	fp, [ip]
    3b34:	e59fc254 	ldr	ip, [pc, #596]	; 3d90 <DELAYUS_78+0x98>
    3b38:	e3a0bc02 	mov	fp, #512	; 0x200
    3b3c:	e58cb000 	str	fp, [ip]
    3b40:	e59fc248 	ldr	ip, [pc, #584]	; 3d90 <DELAYUS_78+0x98>
    3b44:	e59fb248 	ldr	fp, [pc, #584]	; 3d94 <DELAYUS_78+0x9c>
    3b48:	e58cb000 	str	fp, [ip]
    3b4c:	e59fc23c 	ldr	ip, [pc, #572]	; 3d90 <DELAYUS_78+0x98>
    3b50:	e3a0b000 	mov	fp, #0
    3b54:	e58cb000 	str	fp, [ip]
    3b58:	e59fc24c 	ldr	ip, [pc, #588]	; 3dac <DELAYUS_78+0xb4>
    3b5c:	e3a0b000 	mov	fp, #0
    3b60:	e58cb000 	str	fp, [ip]

00003b64 <CheckMiu1Init>:
    3b64:	e59fc234 	ldr	ip, [pc, #564]	; 3da0 <DELAYUS_78+0xa8>
    3b68:	e59c1000 	ldr	r1, [ip]
    3b6c:	e2011902 	and	r1, r1, #32768	; 0x8000
    3b70:	e3510000 	cmp	r1, #0
    3b74:	0afffffa 	beq	3b64 <CheckMiu1Init>
    3b78:	eb000090 	bl	3dc0 <MIU_Set_Group_Priority>
    3b7c:	e59fc22c 	ldr	ip, [pc, #556]	; 3db0 <DELAYUS_78+0xb8>
    3b80:	e3a0b087 	mov	fp, #135	; 0x87
    3b84:	e58cb000 	str	fp, [ip]
    3b88:	eb0000af 	bl	3e4c <Miu0_BistTest>
    3b8c:	eb0000a4 	bl	3e24 <Miu1_BistTest>
    3b90:	e59fc1d8 	ldr	ip, [pc, #472]	; 3d70 <DELAYUS_78+0x78>
    3b94:	e59c01fc 	ldr	r0, [ip, #508]	; 0x1fc
    3b98:	e3800b02 	orr	r0, r0, #2048	; 0x800
    3b9c:	e58c01fc 	str	r0, [ip, #508]	; 0x1fc
    3ba0:	e59f020c 	ldr	r0, [pc, #524]	; 3db4 <DELAYUS_78+0xbc>
    3ba4:	ebfff915 	bl	2000 <MDrv_WriteRegTbl32>
    3ba8:	e1a0e00d 	mov	lr, sp
    3bac:	e12fff1e 	bx	lr

00003bb0 <MIU_Init_AnalogResetPatch>:
    3bb0:	e59fc1b8 	ldr	ip, [pc, #440]	; 3d70 <DELAYUS_78+0x78>
    3bb4:	e59fb170 	ldr	fp, [pc, #368]	; 3d2c <DELAYUS_78+0x34>
    3bb8:	e58cb03c 	str	fp, [ip, #60]	; 0x3c
    3bbc:	e3a0b000 	mov	fp, #0
    3bc0:	e58cb1c0 	str	fp, [ip, #448]	; 0x1c0
    3bc4:	e3a0b000 	mov	fp, #0
    3bc8:	e58cb1c4 	str	fp, [ip, #452]	; 0x1c4
    3bcc:	e3a0b011 	mov	fp, #17
    3bd0:	e58cb1c8 	str	fp, [ip, #456]	; 0x1c8
    3bd4:	e3a0b000 	mov	fp, #0
    3bd8:	e58cb1cc 	str	fp, [ip, #460]	; 0x1cc
    3bdc:	e59fb1d4 	ldr	fp, [pc, #468]	; 3db8 <DELAYUS_78+0xc0>
    3be0:	e58cb1d0 	str	fp, [ip, #464]	; 0x1d0
    3be4:	e3a0b000 	mov	fp, #0
    3be8:	e58cb1e0 	str	fp, [ip, #480]	; 0x1e0
    3bec:	e59fc13c 	ldr	ip, [pc, #316]	; 3d30 <DELAYUS_78+0x38>
    3bf0:	e59c301c 	ldr	r3, [ip, #28]
    3bf4:	e3833040 	orr	r3, r3, #64	; 0x40
    3bf8:	e58c301c 	str	r3, [ip, #28]
    3bfc:	e59fc16c 	ldr	ip, [pc, #364]	; 3d70 <DELAYUS_78+0x78>
    3c00:	e3a0bc02 	mov	fp, #512	; 0x200
    3c04:	e58cb1c0 	str	fp, [ip, #448]	; 0x1c0
    3c08:	e59fb184 	ldr	fp, [pc, #388]	; 3d94 <DELAYUS_78+0x9c>
    3c0c:	e58cb1c0 	str	fp, [ip, #448]	; 0x1c0
    3c10:	e59fc0f8 	ldr	ip, [pc, #248]	; 3d10 <DELAYUS_78+0x18>
    3c14:	e3a0b00c 	mov	fp, #12
    3c18:	e58cb048 	str	fp, [ip, #72]	; 0x48
    3c1c:	e3a0b000 	mov	fp, #0
    3c20:	e58cb04c 	str	fp, [ip, #76]	; 0x4c
    3c24:	e3a0b002 	mov	fp, #2
    3c28:	e58cb040 	str	fp, [ip, #64]	; 0x40

00003c2c <DELAYUS_76>:
    3c2c:	e59cb044 	ldr	fp, [ip, #68]	; 0x44
    3c30:	e25bb001 	subs	fp, fp, #1
    3c34:	1afffffc 	bne	3c2c <DELAYUS_76>
    3c38:	e59fc0f0 	ldr	ip, [pc, #240]	; 3d30 <DELAYUS_78+0x38>
    3c3c:	e59c301c 	ldr	r3, [ip, #28]
    3c40:	e3c33040 	bic	r3, r3, #64	; 0x40
    3c44:	e58c301c 	str	r3, [ip, #28]
    3c48:	e59fc120 	ldr	ip, [pc, #288]	; 3d70 <DELAYUS_78+0x78>
    3c4c:	e3a0b000 	mov	fp, #0
    3c50:	e58cb1c0 	str	fp, [ip, #448]	; 0x1c0
    3c54:	e59fc114 	ldr	ip, [pc, #276]	; 3d70 <DELAYUS_78+0x78>
    3c58:	e3a0b902 	mov	fp, #32768	; 0x8000
    3c5c:	e58cb1e0 	str	fp, [ip, #480]	; 0x1e0
    3c60:	e59fc138 	ldr	ip, [pc, #312]	; 3da0 <DELAYUS_78+0xa8>
    3c64:	e59fb150 	ldr	fp, [pc, #336]	; 3dbc <DELAYUS_78+0xc4>
    3c68:	e58cb08c 	str	fp, [ip, #140]	; 0x8c
    3c6c:	e59fc0bc 	ldr	ip, [pc, #188]	; 3d30 <DELAYUS_78+0x38>
    3c70:	e59c311c 	ldr	r3, [ip, #284]	; 0x11c
    3c74:	e3833040 	orr	r3, r3, #64	; 0x40
    3c78:	e58c311c 	str	r3, [ip, #284]	; 0x11c
    3c7c:	e59fc0ec 	ldr	ip, [pc, #236]	; 3d70 <DELAYUS_78+0x78>
    3c80:	e3a0bc02 	mov	fp, #512	; 0x200
    3c84:	e58cb1c0 	str	fp, [ip, #448]	; 0x1c0
    3c88:	e59fb104 	ldr	fp, [pc, #260]	; 3d94 <DELAYUS_78+0x9c>
    3c8c:	e58cb1c0 	str	fp, [ip, #448]	; 0x1c0
    3c90:	e59fc078 	ldr	ip, [pc, #120]	; 3d10 <DELAYUS_78+0x18>
    3c94:	e3a0b00c 	mov	fp, #12
    3c98:	e58cb048 	str	fp, [ip, #72]	; 0x48
    3c9c:	e3a0b000 	mov	fp, #0
    3ca0:	e58cb04c 	str	fp, [ip, #76]	; 0x4c
    3ca4:	e3a0b002 	mov	fp, #2
    3ca8:	e58cb040 	str	fp, [ip, #64]	; 0x40

00003cac <DELAYUS_77>:
    3cac:	e59cb044 	ldr	fp, [ip, #68]	; 0x44
    3cb0:	e25bb001 	subs	fp, fp, #1
    3cb4:	1afffffc 	bne	3cac <DELAYUS_77>
    3cb8:	e59fc070 	ldr	ip, [pc, #112]	; 3d30 <DELAYUS_78+0x38>
    3cbc:	e59c311c 	ldr	r3, [ip, #284]	; 0x11c
    3cc0:	e3c33040 	bic	r3, r3, #64	; 0x40
    3cc4:	e58c311c 	str	r3, [ip, #284]	; 0x11c
    3cc8:	e59fc0a0 	ldr	ip, [pc, #160]	; 3d70 <DELAYUS_78+0x78>
    3ccc:	e3a0b000 	mov	fp, #0
    3cd0:	e58cb1c0 	str	fp, [ip, #448]	; 0x1c0
    3cd4:	e3a0b000 	mov	fp, #0
    3cd8:	e58cb1e0 	str	fp, [ip, #480]	; 0x1e0
    3cdc:	e59fc02c 	ldr	ip, [pc, #44]	; 3d10 <DELAYUS_78+0x18>
    3ce0:	e3a0b078 	mov	fp, #120	; 0x78
    3ce4:	e58cb048 	str	fp, [ip, #72]	; 0x48
    3ce8:	e3a0b000 	mov	fp, #0
    3cec:	e58cb04c 	str	fp, [ip, #76]	; 0x4c
    3cf0:	e3a0b002 	mov	fp, #2
    3cf4:	e58cb040 	str	fp, [ip, #64]	; 0x40

00003cf8 <DELAYUS_78>:
    3cf8:	e59cb044 	ldr	fp, [ip, #68]	; 0x44
    3cfc:	e25bb001 	subs	fp, fp, #1
    3d00:	1afffffc 	bne	3cf8 <DELAYUS_78>
    3d04:	e12fff1e 	bx	lr
    3d08:	00003f5c 	.word	0x00003f5c
    3d0c:	0000403d 	.word	0x0000403d
    3d10:	1f006000 	.word	0x1f006000
    3d14:	00002ee0 	.word	0x00002ee0
    3d18:	1f221ac0 	.word	0x1f221ac0
    3d1c:	000033c8 	.word	0x000033c8
    3d20:	0000ea60 	.word	0x0000ea60
    3d24:	1f20243c 	.word	0x1f20243c
    3d28:	00000c01 	.word	0x00000c01
    3d2c:	00000c08 	.word	0x00000c08
    3d30:	1f221a00 	.word	0x1f221a00
    3d34:	1f221a04 	.word	0x1f221a04
    3d38:	0000aaaa 	.word	0x0000aaaa
    3d3c:	1f221a30 	.word	0x1f221a30
    3d40:	1f202404 	.word	0x1f202404
    3d44:	000003a7 	.word	0x000003a7
    3d48:	000041f4 	.word	0x000041f4
    3d4c:	1f2c2cc0 	.word	0x1f2c2cc0
    3d50:	1f200c3c 	.word	0x1f200c3c
    3d54:	1f2c2c00 	.word	0x1f2c2c00
    3d58:	1f2c2c04 	.word	0x1f2c2c04
    3d5c:	1f2c2c30 	.word	0x1f2c2c30
    3d60:	1f200c04 	.word	0x1f200c04
    3d64:	000003a3 	.word	0x000003a3
    3d68:	00005dc0 	.word	0x00005dc0
    3d6c:	1f2c2c10 	.word	0x1f2c2c10
    3d70:	1f202400 	.word	0x1f202400
    3d74:	1f20248c 	.word	0x1f20248c
    3d78:	1f2024cc 	.word	0x1f2024cc
    3d7c:	1f20250c 	.word	0x1f20250c
    3d80:	1f20254c 	.word	0x1f20254c
    3d84:	1f221a1c 	.word	0x1f221a1c
    3d88:	1f221a3c 	.word	0x1f221a3c
    3d8c:	1f2025c8 	.word	0x1f2025c8
    3d90:	1f2025c0 	.word	0x1f2025c0
    3d94:	00000201 	.word	0x00000201
    3d98:	1f203114 	.word	0x1f203114
    3d9c:	1f221a10 	.word	0x1f221a10
    3da0:	1f200c00 	.word	0x1f200c00
    3da4:	1f2c2c1c 	.word	0x1f2c2c1c
    3da8:	1f2c2c3c 	.word	0x1f2c2c3c
    3dac:	1f2025e0 	.word	0x1f2025e0
    3db0:	1f2025fc 	.word	0x1f2025fc
    3db4:	00003fc5 	.word	0x00003fc5
    3db8:	00005aa5 	.word	0x00005aa5
    3dbc:	00007ffe 	.word	0x00007ffe

00003dc0 <MIU_Set_Group_Priority>:
    3dc0:	e59fc160 	ldr	ip, [pc, #352]	; 3f28 <BootRom_SetL3Clock+0x34>
    3dc4:	e59c31fc 	ldr	r3, [ip, #508]	; 0x1fc
    3dc8:	e3c33c01 	bic	r3, r3, #256	; 0x100
    3dcc:	e58c31fc 	str	r3, [ip, #508]	; 0x1fc
    3dd0:	e3c330ff 	bic	r3, r3, #255	; 0xff
    3dd4:	e3a04093 	mov	r4, #147	; 0x93
    3dd8:	e1833004 	orr	r3, r3, r4
    3ddc:	e58c31fc 	str	r3, [ip, #508]	; 0x1fc
    3de0:	e3833c01 	orr	r3, r3, #256	; 0x100
    3de4:	e58c31fc 	str	r3, [ip, #508]	; 0x1fc
    3de8:	e3c33c01 	bic	r3, r3, #256	; 0x100
    3dec:	e58c31fc 	str	r3, [ip, #508]	; 0x1fc
    3df0:	e59fc134 	ldr	ip, [pc, #308]	; 3f2c <BootRom_SetL3Clock+0x38>
    3df4:	e59c31fc 	ldr	r3, [ip, #508]	; 0x1fc
    3df8:	e3c33c01 	bic	r3, r3, #256	; 0x100
    3dfc:	e58c31fc 	str	r3, [ip, #508]	; 0x1fc
    3e00:	e3c330ff 	bic	r3, r3, #255	; 0xff
    3e04:	e3a04093 	mov	r4, #147	; 0x93
    3e08:	e1833004 	orr	r3, r3, r4
    3e0c:	e58c31fc 	str	r3, [ip, #508]	; 0x1fc
    3e10:	e3833c01 	orr	r3, r3, #256	; 0x100
    3e14:	e58c31fc 	str	r3, [ip, #508]	; 0x1fc
    3e18:	e3c33c01 	bic	r3, r3, #256	; 0x100
    3e1c:	e58c31fc 	str	r3, [ip, #508]	; 0x1fc
    3e20:	e12fff1e 	bx	lr

00003e24 <Miu1_BistTest>:
    3e24:	e59f0104 	ldr	r0, [pc, #260]	; 3f30 <BootRom_SetL3Clock+0x3c>
    3e28:	e1a0100e 	mov	r1, lr
    3e2c:	ebfff938 	bl	2314 <BootRom_WriteUartString>
    3e30:	e1a0e001 	mov	lr, r1
    3e34:	e59fc0ec 	ldr	ip, [pc, #236]	; 3f28 <BootRom_SetL3Clock+0x34>
    3e38:	e3a0b000 	mov	fp, #0
    3e3c:	e58cb1c0 	str	fp, [ip, #448]	; 0x1c0
    3e40:	e3a0b902 	mov	fp, #32768	; 0x8000
    3e44:	e58cb1e0 	str	fp, [ip, #480]	; 0x1e0
    3e48:	ea000007 	b	3e6c <Miu_BistTest>

00003e4c <Miu0_BistTest>:
    3e4c:	e59f00e0 	ldr	r0, [pc, #224]	; 3f34 <BootRom_SetL3Clock+0x40>
    3e50:	e1a0100e 	mov	r1, lr
    3e54:	ebfff92e 	bl	2314 <BootRom_WriteUartString>
    3e58:	e1a0e001 	mov	lr, r1
    3e5c:	e59fc0c4 	ldr	ip, [pc, #196]	; 3f28 <BootRom_SetL3Clock+0x34>
    3e60:	e3a0b000 	mov	fp, #0
    3e64:	e58cb1c0 	str	fp, [ip, #448]	; 0x1c0
    3e68:	e58cb1e0 	str	fp, [ip, #480]	; 0x1e0

00003e6c <Miu_BistTest>:
    3e6c:	e59fc0b4 	ldr	ip, [pc, #180]	; 3f28 <BootRom_SetL3Clock+0x34>
    3e70:	e3a0b000 	mov	fp, #0
    3e74:	e58cb1c4 	str	fp, [ip, #452]	; 0x1c4
    3e78:	e59f00b8 	ldr	r0, [pc, #184]	; 3f38 <BootRom_SetL3Clock+0x44>
    3e7c:	e59fb0b8 	ldr	fp, [pc, #184]	; 3f3c <BootRom_SetL3Clock+0x48>
    3e80:	e00bb000 	and	fp, fp, r0
    3e84:	e58cb1c8 	str	fp, [ip, #456]	; 0x1c8
    3e88:	e59fb0ac 	ldr	fp, [pc, #172]	; 3f3c <BootRom_SetL3Clock+0x48>
    3e8c:	e1a0b82b 	lsr	fp, fp, #16
    3e90:	e00bb000 	and	fp, fp, r0
    3e94:	e58cb1cc 	str	fp, [ip, #460]	; 0x1cc
    3e98:	e59fb0a0 	ldr	fp, [pc, #160]	; 3f40 <BootRom_SetL3Clock+0x4c>
    3e9c:	e58cb1d0 	str	fp, [ip, #464]	; 0x1d0
    3ea0:	e59fc09c 	ldr	ip, [pc, #156]	; 3f44 <BootRom_SetL3Clock+0x50>
    3ea4:	e3a0b003 	mov	fp, #3
    3ea8:	e58cb000 	str	fp, [ip]

00003eac <Miu_CheckBistLoop>:
    3eac:	e59fc090 	ldr	ip, [pc, #144]	; 3f44 <BootRom_SetL3Clock+0x50>
    3eb0:	e59c1000 	ldr	r1, [ip]
    3eb4:	e2010902 	and	r0, r1, #32768	; 0x8000
    3eb8:	e3500000 	cmp	r0, #0
    3ebc:	0afffffa 	beq	3eac <Miu_CheckBistLoop>
    3ec0:	e2010a06 	and	r0, r1, #24576	; 0x6000
    3ec4:	e3500000 	cmp	r0, #0
    3ec8:	0a000004 	beq	3ee0 <Miu_Bist_OK>

00003ecc <Miu_Bist_Fail>:
    3ecc:	e59f0074 	ldr	r0, [pc, #116]	; 3f48 <BootRom_SetL3Clock+0x54>
    3ed0:	e1a0100e 	mov	r1, lr
    3ed4:	ebfff90e 	bl	2314 <BootRom_WriteUartString>
    3ed8:	e1a0e001 	mov	lr, r1

00003edc <Miu_Bist_FailLoop>:
    3edc:	eafffffe 	b	3edc <Miu_Bist_FailLoop>

00003ee0 <Miu_Bist_OK>:
    3ee0:	e59f0064 	ldr	r0, [pc, #100]	; 3f4c <BootRom_SetL3Clock+0x58>
    3ee4:	e1a0100e 	mov	r1, lr
    3ee8:	ebfff909 	bl	2314 <BootRom_WriteUartString>
    3eec:	e1a0e001 	mov	lr, r1

00003ef0 <Miu_Bist_Exit>:
    3ef0:	e12fff1e 	bx	lr

00003ef4 <BootRom_SetL3Clock>:
    3ef4:	e59fc054 	ldr	ip, [pc, #84]	; 3f50 <BootRom_SetL3Clock+0x5c>
    3ef8:	e3a0b000 	mov	fp, #0
    3efc:	e5ccb000 	strb	fp, [ip]
    3f00:	e59fc04c 	ldr	ip, [pc, #76]	; 3f54 <BootRom_SetL3Clock+0x60>
    3f04:	e3a0b080 	mov	fp, #128	; 0x80
    3f08:	e5ccb000 	strb	fp, [ip]
    3f0c:	e59fc044 	ldr	ip, [pc, #68]	; 3f58 <BootRom_SetL3Clock+0x64>
    3f10:	e59c3000 	ldr	r3, [ip]
    3f14:	e3a04084 	mov	r4, #132	; 0x84
    3f18:	e1833004 	orr	r3, r3, r4
    3f1c:	e59fc034 	ldr	ip, [pc, #52]	; 3f58 <BootRom_SetL3Clock+0x64>
    3f20:	e58c3000 	str	r3, [ip]
    3f24:	e12fff1e 	bx	lr
    3f28:	1f202400 	.word	0x1f202400
    3f2c:	1f200c00 	.word	0x1f200c00
    3f30:	000035e2 	.word	0x000035e2
    3f34:	000035d4 	.word	0x000035d4
    3f38:	0000ffff 	.word	0x0000ffff
    3f3c:	00001001 	.word	0x00001001
    3f40:	00005aa5 	.word	0x00005aa5
    3f44:	1f2025c0 	.word	0x1f2025c0
    3f48:	00003632 	.word	0x00003632
    3f4c:	00003628 	.word	0x00003628
    3f50:	1f203c40 	.word	0x1f203c40
    3f54:	1f201645 	.word	0x1f201645
    3f58:	1f203104 	.word	0x1f203104

00003f5c <MIU_PreInit>:
    3f5c:	001e1230 1e123000 12300c01 300c001e     0....0....0....0
    3f6c:	00000212 fe461230 6612307f 1230ffff     ....0.F..0.f..0.
    3f7c:	30ffff86 ffffa612 001e0630 1e063000     ...0....0....0..
    3f8c:	06300c01 300c001e 00000206 fe460630     ..0....0....0.F.
    3f9c:	6606307f 0630ffff 30ffff86 ffffa606     .0.f..0....0....
    3fac:	4dffffff 455f5549 54534e49 204e4945     ...MIU_EINSTEIN 
    3fbc:	3a726556 5f305f31 1e123030                       Ver:1_0_0

00003fc5 <MIU_PostInit>:
    3fc5:	081e1230 fc123014 06308000 3014081e     0....0....0....0
    3fd5:	8000fc06 00e01230 46123000 12300000     ....0....0.F..0.
    3fe5:	30000066 00008612 00a61230 46063000     f..0....0....0.F
    3ff5:	06300000 30000066 00008606 00a60630     ..0.f..0....0...
    4005:	f0063000 06304e88 300000f2 0000f406     .0...N0....0....
    4015:	20f60630 42183001 18300000 ff000062     0.. .0.B..0.b...
    4025:	494dffff 49455f55 4554534e 56204e49     ..MIU_EINSTEIN V
    4035:	313a7265 305f305f                       er:1_0_0

0000403d <MIU0_DDR_Init>:
    403d:	007e0d31 360d3100 0d316400 31200434     1.~..1.6.d1.4. 1
    404d:	8f5c300d 1e320d31 240d3100 0d311000     .0\.1.2..1.$..1.
    405d:	31000024 0004220d 00110d11 a7021230     $..1."......0...
    406d:	041230f3 1230000c 30162b06 24ee0812     .0....0..+.0...$
    407d:	870a1230 0c123034 1230c80a 30c1170e     0...40....0....0
    408d:	11241012 04121230 14123040 12308028     ..$.0...@0..(.0.
    409d:	30c00016 40d02812 002c1230 2a123000     ...0.(.@0.,..0.*
    40ad:	0d314040 3102221a aaaa020d 80040d31     @@1..".1....1...
    40bd:	3c0d3100 0d311522 3100224c 10553e0d     .1.<".1.L".1.>U.
    40cd:	00500d31 520d3111 0d3100ca 31004438     1.P..1.R..1.8D.1
    40dd:	0044480d 023a0d31 4a0d3100 0d310002     .HD.1.:..1.J..1.
    40ed:	31011192 0003900d 002e0d31 800d3122     ...1....1..."1..
    40fd:	0d31ffff 31ffff82 000f840d ff860d31     ..1....1....1...
    410d:	880d31ff 0d31ffff 31000f8a 3514a00d     .1....1....1...5
    411d:	24a20d31 a40d3103 0d312032 312131a6     1..$.1..2 1..1!1
    412d:	3405a80d 24aa0d31 ac0d3114 0d314241     ...41..$.1..AB1.
    413d:	313041ae 0000700d 146c0d31 6e0d3114     .A01.p..1.l..1.n
    414d:	0d311313 31080070 00ef0e0d 071e0d31     ..1.p..1....1...
    415d:	0e0d3100 0d3100af 3100031e 00ef0e0d     .1....1....1....
    416d:	071e0d31 0e0d3100 0d3100af 3100031e     1....1....1....1
    417d:	2020680d 206a0d31 180d3120 0d310000     .h  1.j  1....1.
    418d:	31201000 0080040d 00100d31 540d310c     .. 1....1....1.T
    419d:	0d31c000 3155555a 55555c0d 555e0d31     ..1.ZUU1.\UU1.^U
    41ad:	720d3155 0d310003 31007f62 f000640d     U1.r..1.b..1.d..
    41bd:	c7600d31 600d3100 0d3100c3 3100cb60     1.`..1.`..1.`..1
    41cd:	00c3600d cb600d31 600d3100 ffff00c2     .`..1.`..1.`....
    41dd:	55494dff 4e49455f 49455453 6556204e     .MIU_EINSTEIN Ve
    41ed:	5f313a72 36305f30                                r:1_0_0

000041f4 <MIU1_DDR_Init>:
    41f4:	007e1636 36163600 16366400 36200434     6.~..6.6.d6.4. 6
    4204:	8f5c3016 1e321636 24163600 16361000     .0\.6.2..6.$..6.
    4214:	36000024 00042216 00111616 a3020630     $..6."......0...
    4224:	040630f3 0630000c 30162b06 24ee0806     .0....0..+.0...$
    4234:	870a0630 0c063034 0630c80a 30c1170e     0...40....0....0
    4244:	11241006 04120630 14063040 06308028     ..$.0...@0..(.0.
    4254:	30c00016 00d02806 002c0630 2a063000     ...0.(..0.,..0.*
    4264:	16364040 3602221a aaaa0216 80041636     @@6..".6....6...
    4274:	3c163600 16361522 3600114c 10553e16     .6.<".6.L..6.>U.
    4284:	10501636 52163611 16360070 36004438     6.P..6.Rp.6.8D.6
    4294:	00444816 003a1636 4a163600 16360002     .HD.6.:..6.J..6.
    42a4:	36011192 00039016 002e1636 80163622     ...6....6..."6..
    42b4:	1636ffff 36ffff82 000f8416 ff861636     ..6....6....6...
    42c4:	881636ff 1636ffff 36000f8a 5300a016     .6....6....6...S
    42d4:	03a21636 a4163613 16362142 362042a6     6....6..B!6..B 6
    42e4:	1111a816 11aa1636 ac163611 16361111     ....6....6....6.
    42f4:	361111ae 00007016 176c1636 6e163617     ...6.p..6.l..6.n
    4304:	16360f0f 36080070 00ef0e16 071e1636     ..6.p..6....6...
    4314:	0e163600 163600af 3600031e 00ef0e16     .6....6....6....
    4324:	071e1636 0e163600 163600af 3600031e     6....6....6....6
    4334:	20206816 206a1636 18163620 16360000     .h  6.j  6....6.
    4344:	36201000 00800416 00101636 5416360c     .. 6....6....6.T
    4354:	1636c000 3655555a 55555c16 555e1636     ..6.ZUU6.\UU6.^U
    4364:	72163655 16360003 36007f62 f0006416     U6.r..6.b..6.d..
    4374:	c7601636 60163600 163600c3 3600cb60     6.`..6.`..6.`..6
    4384:	00c36016 cb601636 60163600 ffff00c2     .`..6.`..6.`....
    4394:	ffffffff                                         .

00004395 <padInitTbl_PreInit>:
    4395:	ffffffff 00000000 00000000 0000ff00     ................
    43a5:	de1eff10 a11ec040 ffff8000 00000000     ....@...........
	...

Disassembly of section .text3:

20000000 <BOOTRAM_Entry>:
20000000:	e3a0005f 	mov	r0, #95	; 0x5f
20000004:	e1a0100e 	mov	r1, lr
20000008:	eb00038e 	bl	20000e48 <__BootRom_WriteUartCharactor_veneer>
2000000c:	e1a0e001 	mov	lr, r1
20000010:	e59f07e8 	ldr	r0, [pc, #2024]	; 20000800 <_InvalidateCache_Finished+0x66c>
20000014:	e280000a 	add	r0, r0, #10
20000018:	eb000388 	bl	20000e40 <__MDrv_WriteRegMaskTbl_veneer>
2000001c:	e59fc7e0 	ldr	ip, [pc, #2016]	; 20000804 <_InvalidateCache_Finished+0x670>
20000020:	e3a0b001 	mov	fp, #1
20000024:	e58cb000 	str	fp, [ip]
20000028:	e59fc7d8 	ldr	ip, [pc, #2008]	; 20000808 <_InvalidateCache_Finished+0x674>
2000002c:	e3a0b0f0 	mov	fp, #240	; 0xf0
20000030:	e58cb000 	str	fp, [ip]
20000034:	e59fc7d0 	ldr	ip, [pc, #2000]	; 2000080c <_InvalidateCache_Finished+0x678>
20000038:	e59fb7d0 	ldr	fp, [pc, #2000]	; 20000810 <_InvalidateCache_Finished+0x67c>
2000003c:	e58cb000 	str	fp, [ip]
20000040:	e59fc7cc 	ldr	ip, [pc, #1996]	; 20000814 <_InvalidateCache_Finished+0x680>
20000044:	e59fb7cc 	ldr	fp, [pc, #1996]	; 20000818 <_InvalidateCache_Finished+0x684>
20000048:	e58cb000 	str	fp, [ip]
2000004c:	e59fc7c8 	ldr	ip, [pc, #1992]	; 2000081c <_InvalidateCache_Finished+0x688>
20000050:	e3a0b001 	mov	fp, #1
20000054:	e58cb000 	str	fp, [ip]
20000058:	e59fc7c0 	ldr	ip, [pc, #1984]	; 20000820 <_InvalidateCache_Finished+0x68c>
2000005c:	e59fb7c0 	ldr	fp, [pc, #1984]	; 20000824 <_InvalidateCache_Finished+0x690>
20000060:	e58cb000 	str	fp, [ip]
20000064:	e59f07bc 	ldr	r0, [pc, #1980]	; 20000828 <_InvalidateCache_Finished+0x694>
20000068:	e59f17bc 	ldr	r1, [pc, #1980]	; 2000082c <_InvalidateCache_Finished+0x698>
2000006c:	e3a02000 	mov	r2, #0
20000070:	e1500001 	cmp	r0, r1
20000074:	0a000002 	beq	20000084 <_ClearBssExit>

20000078 <_ClearBssLoop>:
20000078:	e1500001 	cmp	r0, r1
2000007c:	e4802004 	str	r2, [r0], #4
20000080:	1afffffc 	bne	20000078 <_ClearBssLoop>

20000084 <_ClearBssExit>:
20000084:	e59fd7a4 	ldr	sp, [pc, #1956]	; 20000830 <_InvalidateCache_Finished+0x69c>
20000088:	eb0002e4 	bl	20000c20 <DoMSDecompression>

2000008c <BOOT_POINT>:
2000008c:	e3a00055 	mov	r0, #85	; 0x55
20000090:	e1a0100e 	mov	r1, lr
20000094:	eb00036b 	bl	20000e48 <__BootRom_WriteUartCharactor_veneer>
20000098:	e1a0e001 	mov	lr, r1
2000009c:	e59fc790 	ldr	ip, [pc, #1936]	; 20000834 <_InvalidateCache_Finished+0x6a0>
200000a0:	e3a0b000 	mov	fp, #0
200000a4:	e58cb000 	str	fp, [ip]
200000a8:	e59f0788 	ldr	r0, [pc, #1928]	; 20000838 <_InvalidateCache_Finished+0x6a4>
200000ac:	e590f010 	ldr	pc, [r0, #16]

200000b0 <Bootram_SecondaryCore>:
200000b0:	e59fc784 	ldr	ip, [pc, #1924]	; 2000083c <_InvalidateCache_Finished+0x6a8>
200000b4:	e3a0b0ff 	mov	fp, #255	; 0xff
200000b8:	e58cb000 	str	fp, [ip]
200000bc:	e59fc77c 	ldr	ip, [pc, #1916]	; 20000840 <_InvalidateCache_Finished+0x6ac>
200000c0:	e3a0b000 	mov	fp, #0
200000c4:	e58cb000 	str	fp, [ip]

200000c8 <Bootram_MpCoreLoop>:
200000c8:	e320f003 	wfi
200000cc:	e59fc770 	ldr	ip, [pc, #1904]	; 20000844 <_InvalidateCache_Finished+0x6b0>
200000d0:	e59c1000 	ldr	r1, [ip]
200000d4:	e59f276c 	ldr	r2, [pc, #1900]	; 20000848 <_InvalidateCache_Finished+0x6b4>
200000d8:	e1510002 	cmp	r1, r2
200000dc:	1afffff9 	bne	200000c8 <Bootram_MpCoreLoop>
200000e0:	e1a0c00e 	mov	ip, lr
200000e4:	eb000007 	bl	20000108 <BootRom_InvalidateCache>
200000e8:	e1a0e00c 	mov	lr, ip
200000ec:	e59fc758 	ldr	ip, [pc, #1880]	; 2000084c <_InvalidateCache_Finished+0x6b8>
200000f0:	e59c1000 	ldr	r1, [ip]
200000f4:	e59fc754 	ldr	ip, [pc, #1876]	; 20000850 <_InvalidateCache_Finished+0x6bc>
200000f8:	e59c2000 	ldr	r2, [ip]
200000fc:	e0811802 	add	r1, r1, r2, lsl #16
20000100:	e1a0f001 	mov	pc, r1

20000104 <Bootram_SecondaryCoreExit>:
20000104:	eafffffe 	b	20000104 <Bootram_SecondaryCoreExit>

20000108 <BootRom_InvalidateCache>:
20000108:	e3a00000 	mov	r0, #0
2000010c:	ee080f17 	mcr	15, 0, r0, cr8, cr7, {0}
20000110:	ee070f15 	mcr	15, 0, r0, cr7, cr5, {0}
20000114:	ee300f30 	mrc	15, 1, r0, cr0, cr0, {1}
20000118:	e2103407 	ands	r3, r0, #117440512	; 0x7000000
2000011c:	e1a03ba3 	lsr	r3, r3, #23
20000120:	0a00001b 	beq	20000194 <_InvalidateCache_Finished>
20000124:	e3a0a000 	mov	sl, #0

20000128 <_InvalidateCache_Loop1>:
20000128:	e08a20aa 	add	r2, sl, sl, lsr #1
2000012c:	e1a01230 	lsr	r1, r0, r2
20000130:	e2011007 	and	r1, r1, #7
20000134:	e3510002 	cmp	r1, #2
20000138:	ba000012 	blt	20000188 <_InvalidateCache_Skip>
2000013c:	ee40af10 	mcr	15, 2, sl, cr0, cr0, {0}
20000140:	e3a01000 	mov	r1, #0
20000144:	ee071f95 	mcr	15, 0, r1, cr7, cr5, {4}
20000148:	ee301f10 	mrc	15, 1, r1, cr0, cr0, {0}
2000014c:	e2012007 	and	r2, r1, #7
20000150:	e2822004 	add	r2, r2, #4
20000154:	e59f66f8 	ldr	r6, [pc, #1784]	; 20000854 <_InvalidateCache_Finished+0x6c0>
20000158:	e01661a1 	ands	r6, r6, r1, lsr #3
2000015c:	e16f5f16 	.word	0xe16f5f16
20000160:	e59f76f0 	ldr	r7, [pc, #1776]	; 20000858 <_InvalidateCache_Finished+0x6c4>
20000164:	e01776a1 	ands	r7, r7, r1, lsr #13

20000168 <_InvalidateCache_Loop2>:
20000168:	e1a08006 	mov	r8, r6

2000016c <_InvalidateCache_Loop3>:
2000016c:	e18ab518 	orr	fp, sl, r8, lsl r5
20000170:	e18bb217 	orr	fp, fp, r7, lsl r2
20000174:	ee07bf56 	mcr	15, 0, fp, cr7, cr6, {2}
20000178:	e2588001 	subs	r8, r8, #1
2000017c:	aafffffa 	bge	2000016c <_InvalidateCache_Loop3>
20000180:	e2577001 	subs	r7, r7, #1
20000184:	aafffff7 	bge	20000168 <_InvalidateCache_Loop2>

20000188 <_InvalidateCache_Skip>:
20000188:	e28aa002 	add	sl, sl, #2
2000018c:	e153000a 	cmp	r3, sl
20000190:	caffffe4 	bgt	20000128 <_InvalidateCache_Loop1>

20000194 <_InvalidateCache_Finished>:
20000194:	e12fff1e 	bx	lr
	...
20000800:	2000085c 	.word	0x2000085c
20000804:	16001000 	.word	0x16001000
20000808:	16000104 	.word	0x16000104
2000080c:	16001180 	.word	0x16001180
20000810:	ffff0000 	.word	0xffff0000
20000814:	16001100 	.word	0x16001100
20000818:	0000ffff 	.word	0x0000ffff
2000081c:	16000100 	.word	0x16000100
20000820:	16001f00 	.word	0x16001f00
20000824:	000e0001 	.word	0x000e0001
20000828:	200055b0 	.word	0x200055b0
2000082c:	20005ed0 	.word	0x20005ed0
20000830:	2ff00000 	.word	0x2ff00000
20000834:	1f006040 	.word	0x1f006040
20000838:	14020000 	.word	0x14020000
2000083c:	1f206744 	.word	0x1f206744
20000840:	20208000 	.word	0x20208000
20000844:	1f203bb4 	.word	0x1f203bb4
20000848:	0000babe 	.word	0x0000babe
2000084c:	1f203bec 	.word	0x1f203bec
20000850:	1f203bf0 	.word	0x1f203bf0
20000854:	000003ff 	.word	0x000003ff
20000858:	00007fff 	.word	0x00007fff

2000085c <padInitTbl>:
2000085c:	535bb639 00000003 00000000 000fff00     9.[S............
2000086c:	000f0200 040f0100 040f0202 060f0100     ................
2000087c:	060f0200 080f0100 080f0202 240e0100     ...............$
2000088c:	250effbe 0e0fffba 0e0f0200 120f0100     ...%............
2000089c:	120f0200 140f0100 140f0200 6a0e0100     ...............j
200008ac:	1a0f0800 1a0f0200 1e0f0100 1e0f0200     ................
200008bc:	e40e0100 220f8000 220f0202 e40e0100     ......."..."....
200008cc:	24140100 23140800 22140808 00000800     ...$...#..."....
200008dc:	0d2bff10 0d2b0101 041e0200 a91e3000     ..+...+......0..
200008ec:	9f1ec000 a11e0300 0e2b8000 0e2b0101     ..........+...+.
200008fc:	041e0200 a91e3000 a11ec000 a02b8000     .....0........+.
2000090c:	a02b0100 dc1e0202 a11e0100 8b2b8000     ..+...........+.
2000091c:	8b2b0100 c91e0200 de1e1000 a11e3000     ..+..........0..
2000092c:	902b8000 902b0100 de1e0202 071e0c00     ..+...+.........
2000093c:	dc1e0300 a11e0200 af1e8000 af1e0301     ................
2000094c:	de1e3810 121ec040 131effff 141effff     .8..@...........
2000095c:	151effff 161effff c81e0303 c81e2020     ............  ..
2000096c:	ae1e1010 ae1e8080 ae1e4040 ae1e0404     ........@@......
2000097c:	ae1e1010 b41e2020 ab1e1010 a61e1f00     ....  ..........
2000098c:	a71eff24 a81eff13 00000f05 130eff00     $...............
2000099c:	130e0808 00001000 c81eff10 ae1e8080     ................
200009ac:	00000302 a11eff10 ffff8000 ff000000     ................
200009bc:	01006a0e 02006a0e ff00f408 02021a0f     .j...j..........
200009cc:	01001a0f 0000ffff 6a0eff00 6a0e0100     ...........j...j
200009dc:	f4080400 060fff01 060f0202 ffff0100     ................

200009ec <__BDMA_FlashCopy2MIU0>:
200009ec:	e59f3060 	ldr	r3, [pc, #96]	; 20000a54 <__BDMA_FlashCopy2MIU0+0x68>
200009f0:	e5d3c004 	ldrb	ip, [r3, #4]
200009f4:	e21cc001 	ands	ip, ip, #1
200009f8:	1afffffb 	bne	200009ec <__BDMA_FlashCopy2MIU0>
200009fc:	e1c301b0 	strh	r0, [r3, #16]
20000a00:	e1a00820 	lsr	r0, r0, #16
20000a04:	e1c301b4 	strh	r0, [r3, #20]
20000a08:	e1c311b8 	strh	r1, [r3, #24]
20000a0c:	e1a01821 	lsr	r1, r1, #16
20000a10:	e1c311bc 	strh	r1, [r3, #28]
20000a14:	e1c322b0 	strh	r2, [r3, #32]
20000a18:	e1a02822 	lsr	r2, r2, #16
20000a1c:	e1c322b4 	strh	r2, [r3, #36]	; 0x24
20000a20:	e3042045 	movw	r2, #16453	; 0x4045
20000a24:	e5c3c00c 	strb	ip, [r3, #12]
20000a28:	e1c320b8 	strh	r2, [r3, #8]
20000a2c:	e5d32004 	ldrb	r2, [r3, #4]
20000a30:	e382201c 	orr	r2, r2, #28
20000a34:	e5c32004 	strb	r2, [r3, #4]
20000a38:	e3a02001 	mov	r2, #1
20000a3c:	e5c32000 	strb	r2, [r3]
20000a40:	e59f300c 	ldr	r3, [pc, #12]	; 20000a54 <__BDMA_FlashCopy2MIU0+0x68>
20000a44:	e5d33004 	ldrb	r3, [r3, #4]
20000a48:	e3130008 	tst	r3, #8
20000a4c:	0afffffb 	beq	20000a40 <__BDMA_FlashCopy2MIU0+0x54>
20000a50:	e12fff1e 	bx	lr
20000a54:	1f201200 	.word	0x1f201200

20000a58 <zalloc>:
20000a58:	e0020291 	mul	r2, r1, r2
20000a5c:	e59f3014 	ldr	r3, [pc, #20]	; 20000a78 <zalloc+0x20>
20000a60:	e2822003 	add	r2, r2, #3
20000a64:	e5930000 	ldr	r0, [r3]
20000a68:	e3c22003 	bic	r2, r2, #3
20000a6c:	e0802002 	add	r2, r0, r2
20000a70:	e5832000 	str	r2, [r3]
20000a74:	e12fff1e 	bx	lr
20000a78:	200055b8 	.word	0x200055b8

20000a7c <zfree>:
20000a7c:	e12fff1e 	bx	lr

20000a80 <SzFree>:
20000a80:	e1a00001 	mov	r0, r1
20000a84:	ea0000f6 	b	20000e64 <MyFree>

20000a88 <SzAlloc>:
20000a88:	e1a00001 	mov	r0, r1
20000a8c:	ea0000ef 	b	20000e50 <MyAlloc>

20000a90 <MemoryAllocatorInit>:
20000a90:	e59f3018 	ldr	r3, [pc, #24]	; 20000ab0 <MemoryAllocatorInit+0x20>
20000a94:	e0801001 	add	r1, r0, r1
20000a98:	e5830000 	str	r0, [r3]
20000a9c:	e59f3010 	ldr	r3, [pc, #16]	; 20000ab4 <MemoryAllocatorInit+0x24>
20000aa0:	e5831000 	str	r1, [r3]
20000aa4:	e59f300c 	ldr	r3, [pc, #12]	; 20000ab8 <MemoryAllocatorInit+0x28>
20000aa8:	e5830000 	str	r0, [r3]
20000aac:	e12fff1e 	bx	lr
20000ab0:	200055b4 	.word	0x200055b4
20000ab4:	200055b0 	.word	0x200055b0
20000ab8:	200055b8 	.word	0x200055b8

20000abc <MsDecompress>:
20000abc:	e92d4010 	push	{r4, lr}
20000ac0:	e24dd030 	sub	sp, sp, #48	; 0x30
20000ac4:	e3a0c000 	mov	ip, #0
20000ac8:	e58dc028 	str	ip, [sp, #40]	; 0x28
20000acc:	e59fc070 	ldr	ip, [pc, #112]	; 20000b44 <MsDecompress+0x88>
20000ad0:	e58d0000 	str	r0, [sp]
20000ad4:	e1a0000d 	mov	r0, sp
20000ad8:	e58d100c 	str	r1, [sp, #12]
20000adc:	e3e0100e 	mvn	r1, #14
20000ae0:	e58dc020 	str	ip, [sp, #32]
20000ae4:	e59fc05c 	ldr	ip, [pc, #92]	; 20000b48 <MsDecompress+0x8c>
20000ae8:	e58d2004 	str	r2, [sp, #4]
20000aec:	e58d3010 	str	r3, [sp, #16]
20000af0:	e58dc024 	str	ip, [sp, #36]	; 0x24
20000af4:	eb000a7a 	bl	200034e4 <inflateInit2>
20000af8:	e2504000 	subs	r4, r0, #0
20000afc:	1a000004 	bne	20000b14 <MsDecompress+0x58>
20000b00:	e1a0000d 	mov	r0, sp
20000b04:	e3a01004 	mov	r1, #4
20000b08:	eb00109c 	bl	20004d80 <inflate>
20000b0c:	e3500000 	cmp	r0, #0
20000b10:	aa000003 	bge	20000b24 <MsDecompress+0x68>
20000b14:	e1a0000d 	mov	r0, sp
20000b18:	eb000a1c 	bl	20003390 <inflateEnd>
20000b1c:	e3a00001 	mov	r0, #1
20000b20:	ea000005 	b	20000b3c <MsDecompress+0x80>
20000b24:	e59d2014 	ldr	r2, [sp, #20]
20000b28:	e1a0000d 	mov	r0, sp
20000b2c:	e59d3038 	ldr	r3, [sp, #56]	; 0x38
20000b30:	e5832000 	str	r2, [r3]
20000b34:	eb000a15 	bl	20003390 <inflateEnd>
20000b38:	e1a00004 	mov	r0, r4
20000b3c:	e28dd030 	add	sp, sp, #48	; 0x30
20000b40:	e8bd8010 	pop	{r4, pc}
20000b44:	20000a58 	.word	0x20000a58
20000b48:	20000a7c 	.word	0x20000a7c

20000b4c <MsDecompress7>:
20000b4c:	e3a0c000 	mov	ip, #0
20000b50:	e1a03000 	mov	r3, r0
20000b54:	e92d4070 	push	{r4, r5, r6, lr}
20000b58:	e242600d 	sub	r6, r2, #13
20000b5c:	e24dd028 	sub	sp, sp, #40	; 0x28
20000b60:	e1a02000 	mov	r2, r0
20000b64:	e1a0400c 	mov	r4, ip
20000b68:	e5cdc027 	strb	ip, [sp, #39]	; 0x27
20000b6c:	e5d2e005 	ldrb	lr, [r2, #5]
20000b70:	e1a0018c 	lsl	r0, ip, #3
20000b74:	e28cc001 	add	ip, ip, #1
20000b78:	e2822001 	add	r2, r2, #1
20000b7c:	e35c0008 	cmp	ip, #8
20000b80:	e084401e 	add	r4, r4, lr, lsl r0
20000b84:	1afffff8 	bne	20000b6c <MsDecompress7+0x20>
20000b88:	e3a02005 	mov	r2, #5
20000b8c:	e58d2004 	str	r2, [sp, #4]
20000b90:	e28d2027 	add	r2, sp, #39	; 0x27
20000b94:	e58d200c 	str	r2, [sp, #12]
20000b98:	e59f207c 	ldr	r2, [pc, #124]	; 20000c1c <MsDecompress7+0xd0>
20000b9c:	e1a00001 	mov	r0, r1
20000ba0:	e58d3000 	str	r3, [sp]
20000ba4:	e28d1020 	add	r1, sp, #32
20000ba8:	e58d4020 	str	r4, [sp, #32]
20000bac:	e3a05000 	mov	r5, #0
20000bb0:	e58d2010 	str	r2, [sp, #16]
20000bb4:	e283200d 	add	r2, r3, #13
20000bb8:	e28d301c 	add	r3, sp, #28
20000bbc:	e58d601c 	str	r6, [sp, #28]
20000bc0:	e58d5008 	str	r5, [sp, #8]
20000bc4:	eb0006a9 	bl	20002670 <LzmaDecode>
20000bc8:	e5dd3027 	ldrb	r3, [sp, #39]	; 0x27
20000bcc:	e3530004 	cmp	r3, #4
20000bd0:	8a00000e 	bhi	20000c10 <MsDecompress7+0xc4>
20000bd4:	e1dd32d7 	ldrsb	r3, [sp, #39]	; 0x27
20000bd8:	e3a0231a 	mov	r2, #1744830464	; 0x68000000
20000bdc:	e1b02312 	lsls	r2, r2, r3
20000be0:	5a00000a 	bpl	20000c10 <MsDecompress7+0xc4>
20000be4:	e1500005 	cmp	r0, r5
20000be8:	11a00005 	movne	r0, r5
20000bec:	1a000008 	bne	20000c14 <MsDecompress7+0xc8>
20000bf0:	e59d3020 	ldr	r3, [sp, #32]
20000bf4:	e1530004 	cmp	r3, r4
20000bf8:	1a000005 	bne	20000c14 <MsDecompress7+0xc8>
20000bfc:	e59d001c 	ldr	r0, [sp, #28]
20000c00:	e0663000 	rsb	r3, r6, r0
20000c04:	e2730000 	rsbs	r0, r3, #0
20000c08:	e0a00003 	adc	r0, r0, r3
20000c0c:	ea000000 	b	20000c14 <MsDecompress7+0xc8>
20000c10:	e3a00000 	mov	r0, #0
20000c14:	e28dd028 	add	sp, sp, #40	; 0x28
20000c18:	e8bd8070 	pop	{r4, r5, r6, pc}
20000c1c:	200055a0 	.word	0x200055a0

20000c20 <DoMSDecompression>:
20000c20:	e59f31fc 	ldr	r3, [pc, #508]	; 20000e24 <DoMSDecompression+0x204>
20000c24:	e3a02000 	mov	r2, #0
20000c28:	e92d45f0 	push	{r4, r5, r6, r7, r8, sl, lr}
20000c2c:	e24dd014 	sub	sp, sp, #20
20000c30:	e30b1007 	movw	r1, #45063	; 0xb007
20000c34:	e58d200c 	str	r2, [sp, #12]
20000c38:	e593c01c 	ldr	ip, [r3, #28]
20000c3c:	e5930000 	ldr	r0, [r3]
20000c40:	e15c0001 	cmp	ip, r1
20000c44:	e593500c 	ldr	r5, [r3, #12]
20000c48:	1a000067 	bne	20000dec <DoMSDecompression+0x1cc>
20000c4c:	e5936004 	ldr	r6, [r3, #4]
20000c50:	e0605005 	rsb	r5, r0, r5
20000c54:	e5934008 	ldr	r4, [r3, #8]
20000c58:	e0664004 	rsb	r4, r6, r4
20000c5c:	e1550004 	cmp	r5, r4
20000c60:	159f31c0 	ldrne	r3, [pc, #448]	; 20000e28 <DoMSDecompression+0x208>
20000c64:	1a000003 	bne	20000c78 <DoMSDecompression+0x58>
20000c68:	ea000010 	b	20000cb0 <DoMSDecompression+0x90>
20000c6c:	e7921000 	ldr	r1, [r2, r0]
20000c70:	e2822004 	add	r2, r2, #4
20000c74:	e5a31004 	str	r1, [r3, #4]!
20000c78:	e2851007 	add	r1, r5, #7
20000c7c:	e3c11007 	bic	r1, r1, #7
20000c80:	e1520001 	cmp	r2, r1
20000c84:	3afffff8 	bcc	20000c6c <DoMSDecompression+0x4c>
20000c88:	e59f019c 	ldr	r0, [pc, #412]	; 20000e2c <DoMSDecompression+0x20c>
20000c8c:	e3a0160a 	mov	r1, #10485760	; 0xa00000
20000c90:	ebffff7e 	bl	20000a90 <MemoryAllocatorInit>
20000c94:	e28d300c 	add	r3, sp, #12
20000c98:	e59f0190 	ldr	r0, [pc, #400]	; 20000e30 <DoMSDecompression+0x210>
20000c9c:	e1a01006 	mov	r1, r6
20000ca0:	e58d3000 	str	r3, [sp]
20000ca4:	e1a02005 	mov	r2, r5
20000ca8:	e1a03004 	mov	r3, r4
20000cac:	ea000043 	b	20000dc0 <DoMSDecompression+0x1a0>
20000cb0:	e3c004ff 	bic	r0, r0, #-16777216	; 0xff000000
20000cb4:	e3c6120e 	bic	r1, r6, #-536870912	; 0xe0000000
20000cb8:	e3c00503 	bic	r0, r0, #12582912	; 0xc00000
20000cbc:	e1a02005 	mov	r2, r5
20000cc0:	ebffff49 	bl	200009ec <__BDMA_FlashCopy2MIU0>
20000cc4:	ea000054 	b	20000e1c <DoMSDecompression+0x1fc>
20000cc8:	e5d03fc8 	ldrb	r3, [r0, #4040]	; 0xfc8
20000ccc:	e35300ad 	cmp	r3, #173	; 0xad
20000cd0:	1a000048 	bne	20000df8 <DoMSDecompression+0x1d8>
20000cd4:	e5d03fc7 	ldrb	r3, [r0, #4039]	; 0xfc7
20000cd8:	e35300be 	cmp	r3, #190	; 0xbe
20000cdc:	0a000003 	beq	20000cf0 <DoMSDecompression+0xd0>
20000ce0:	e35300ef 	cmp	r3, #239	; 0xef
20000ce4:	03a01002 	moveq	r1, #2
20000ce8:	0a000001 	beq	20000cf4 <DoMSDecompression+0xd4>
20000cec:	ea000041 	b	20000df8 <DoMSDecompression+0x1d8>
20000cf0:	e3a01001 	mov	r1, #1
20000cf4:	e59f3128 	ldr	r3, [pc, #296]	; 20000e24 <DoMSDecompression+0x204>
20000cf8:	e9931020 	ldmib	r3, {r5, ip}
20000cfc:	e3a03000 	mov	r3, #0
20000d00:	e7932000 	ldr	r2, [r3, r0]
20000d04:	e7832005 	str	r2, [r3, r5]
20000d08:	e2833004 	add	r3, r3, #4
20000d0c:	e3530b0e 	cmp	r3, #14336	; 0x3800
20000d10:	1afffffa 	bne	20000d00 <DoMSDecompression+0xe0>
20000d14:	e59f310c 	ldr	r3, [pc, #268]	; 20000e28 <DoMSDecompression+0x208>
20000d18:	ea000003 	b	20000d2c <DoMSDecompression+0x10c>
20000d1c:	e59f2110 	ldr	r2, [pc, #272]	; 20000e34 <DoMSDecompression+0x214>
20000d20:	e0802002 	add	r2, r0, r2
20000d24:	e7922003 	ldr	r2, [r2, r3]
20000d28:	e5a32004 	str	r2, [r3, #4]!
20000d2c:	e24c2ddf 	sub	r2, ip, #14272	; 0x37c0
20000d30:	e283e24d 	add	lr, r3, #-805306364	; 0xd0000004
20000d34:	e2422039 	sub	r2, r2, #57	; 0x39
20000d38:	e28ee613 	add	lr, lr, #19922944	; 0x1300000
20000d3c:	e0652002 	rsb	r2, r5, r2
20000d40:	e3c22007 	bic	r2, r2, #7
20000d44:	e15e0002 	cmp	lr, r2
20000d48:	3afffff3 	bcc	20000d1c <DoMSDecompression+0xfc>
20000d4c:	e5d56fcd 	ldrb	r6, [r5, #4045]	; 0xfcd
20000d50:	e3510001 	cmp	r1, #1
20000d54:	e5d53fcc 	ldrb	r3, [r5, #4044]	; 0xfcc
20000d58:	e1836406 	orr	r6, r3, r6, lsl #8
20000d5c:	e5d53fcb 	ldrb	r3, [r5, #4043]	; 0xfcb
20000d60:	e1836406 	orr	r6, r3, r6, lsl #8
20000d64:	e5d53fca 	ldrb	r3, [r5, #4042]	; 0xfca
20000d68:	e1836406 	orr	r6, r3, r6, lsl #8
20000d6c:	e59f30c4 	ldr	r3, [pc, #196]	; 20000e38 <DoMSDecompression+0x218>
20000d70:	e2466006 	sub	r6, r6, #6
20000d74:	e7d6a003 	ldrb	sl, [r6, r3]
20000d78:	e2433001 	sub	r3, r3, #1
20000d7c:	e7d68003 	ldrb	r8, [r6, r3]
20000d80:	e2433001 	sub	r3, r3, #1
20000d84:	e7d67003 	ldrb	r7, [r6, r3]
20000d88:	e2433001 	sub	r3, r3, #1
20000d8c:	e7d64003 	ldrb	r4, [r6, r3]
20000d90:	1a00000c 	bne	20000dc8 <DoMSDecompression+0x1a8>
20000d94:	e59f0090 	ldr	r0, [pc, #144]	; 20000e2c <DoMSDecompression+0x20c>
20000d98:	e3a0160a 	mov	r1, #10485760	; 0xa00000
20000d9c:	ebffff3b 	bl	20000a90 <MemoryAllocatorInit>
20000da0:	e188340a 	orr	r3, r8, sl, lsl #8
20000da4:	e59f0084 	ldr	r0, [pc, #132]	; 20000e30 <DoMSDecompression+0x210>
20000da8:	e28d200c 	add	r2, sp, #12
20000dac:	e1873403 	orr	r3, r7, r3, lsl #8
20000db0:	e58d2000 	str	r2, [sp]
20000db4:	e2851b0e 	add	r1, r5, #14336	; 0x3800
20000db8:	e1a02006 	mov	r2, r6
20000dbc:	e1843403 	orr	r3, r4, r3, lsl #8
20000dc0:	ebffff3d 	bl	20000abc <MsDecompress>
20000dc4:	ea000014 	b	20000e1c <DoMSDecompression+0x1fc>
20000dc8:	e59f005c 	ldr	r0, [pc, #92]	; 20000e2c <DoMSDecompression+0x20c>
20000dcc:	e3a0160a 	mov	r1, #10485760	; 0xa00000
20000dd0:	ebffff2e 	bl	20000a90 <MemoryAllocatorInit>
20000dd4:	e2462ddf 	sub	r2, r6, #14272	; 0x37c0
20000dd8:	e2851b0e 	add	r1, r5, #14336	; 0x3800
20000ddc:	e242203c 	sub	r2, r2, #60	; 0x3c
20000de0:	e59f0048 	ldr	r0, [pc, #72]	; 20000e30 <DoMSDecompression+0x210>
20000de4:	ebffff58 	bl	20000b4c <MsDecompress7>
20000de8:	ea00000b 	b	20000e1c <DoMSDecompression+0x1fc>
20000dec:	e5d03fc9 	ldrb	r3, [r0, #4041]	; 0xfc9
20000df0:	e35300de 	cmp	r3, #222	; 0xde
20000df4:	0affffb3 	beq	20000cc8 <DoMSDecompression+0xa8>
20000df8:	e59f003c 	ldr	r0, [pc, #60]	; 20000e3c <DoMSDecompression+0x21c>
20000dfc:	e5901000 	ldr	r1, [r0]
20000e00:	e5902004 	ldr	r2, [r0, #4]
20000e04:	e5903008 	ldr	r3, [r0, #8]
20000e08:	e590400c 	ldr	r4, [r0, #12]
20000e0c:	e4915004 	ldr	r5, [r1], #4
20000e10:	e4825004 	str	r5, [r2], #4
20000e14:	e1510004 	cmp	r1, r4
20000e18:	1afffffb 	bne	20000e0c <DoMSDecompression+0x1ec>
20000e1c:	e28dd014 	add	sp, sp, #20
20000e20:	e8bd85f0 	pop	{r4, r5, r6, r7, r8, sl, pc}
20000e24:	14020000 	.word	0x14020000
20000e28:	2ecffffc 	.word	0x2ecffffc
20000e2c:	2f300000 	.word	0x2f300000
20000e30:	2ed00000 	.word	0x2ed00000
20000e34:	d1303804 	.word	0xd1303804
20000e38:	2ecfc803 	.word	0x2ecfc803
20000e3c:	14020000 	.word	0x14020000

20000e40 <__MDrv_WriteRegMaskTbl_veneer>:
20000e40:	e51ff004 	ldr	pc, [pc, #-4]	; 20000e44 <__MDrv_WriteRegMaskTbl_veneer+0x4>
20000e44:	00002078 	.word	0x00002078

20000e48 <__BootRom_WriteUartCharactor_veneer>:
20000e48:	e51ff004 	ldr	pc, [pc, #-4]	; 20000e4c <__BootRom_WriteUartCharactor_veneer+0x4>
20000e4c:	000022f8 	.word	0x000022f8

Disassembly of section .text.MyAlloc:

20000e50 <MyAlloc>:
20000e50:	e2502000 	subs	r2, r0, #0
20000e54:	012fff1e 	bxeq	lr
20000e58:	e3a00000 	mov	r0, #0
20000e5c:	e3a01001 	mov	r1, #1
20000e60:	eafffefc 	b	20000a58 <zalloc>

Disassembly of section .text.MyFree:

20000e64 <MyFree>:
20000e64:	e1a01000 	mov	r1, r0
20000e68:	e3a02004 	mov	r2, #4
20000e6c:	eaffff02 	b	20000a7c <zfree>

Disassembly of section .text.LzmaDec_WriteRem:

20000e70 <LzmaDec_WriteRem>:
20000e70:	e5903048 	ldr	r3, [r0, #72]	; 0x48
20000e74:	e92d41f0 	push	{r4, r5, r6, r7, r8, lr}
20000e78:	e2432001 	sub	r2, r3, #1
20000e7c:	e3520e11 	cmp	r2, #272	; 0x110
20000e80:	88bd81f0 	pophi	{r4, r5, r6, r7, r8, pc}
20000e84:	e5902024 	ldr	r2, [r0, #36]	; 0x24
20000e88:	e5904014 	ldr	r4, [r0, #20]
20000e8c:	e0621001 	rsb	r1, r2, r1
20000e90:	e5906028 	ldr	r6, [r0, #40]	; 0x28
20000e94:	e1510003 	cmp	r1, r3
20000e98:	21a01003 	movcs	r1, r3
20000e9c:	e5903030 	ldr	r3, [r0, #48]	; 0x30
20000ea0:	e5905038 	ldr	r5, [r0, #56]	; 0x38
20000ea4:	e3530000 	cmp	r3, #0
20000ea8:	1a000004 	bne	20000ec0 <LzmaDec_WriteRem+0x50>
20000eac:	e590300c 	ldr	r3, [r0, #12]
20000eb0:	e590c02c 	ldr	ip, [r0, #44]	; 0x2c
20000eb4:	e06cc003 	rsb	ip, ip, r3
20000eb8:	e15c0001 	cmp	ip, r1
20000ebc:	95803030 	strls	r3, [r0, #48]	; 0x30
20000ec0:	e590302c 	ldr	r3, [r0, #44]	; 0x2c
20000ec4:	e1a0c001 	mov	ip, r1
20000ec8:	e0833001 	add	r3, r3, r1
20000ecc:	e580302c 	str	r3, [r0, #44]	; 0x2c
20000ed0:	e5903048 	ldr	r3, [r0, #72]	; 0x48
20000ed4:	e0613003 	rsb	r3, r1, r3
20000ed8:	e5803048 	str	r3, [r0, #72]	; 0x48
20000edc:	e1a03002 	mov	r3, r2
20000ee0:	ea000007 	b	20000f04 <LzmaDec_WriteRem+0x94>
20000ee4:	e1530005 	cmp	r3, r5
20000ee8:	e0657003 	rsb	r7, r5, r3
20000eec:	31a08006 	movcc	r8, r6
20000ef0:	23a08000 	movcs	r8, #0
20000ef4:	e0848008 	add	r8, r4, r8
20000ef8:	e7d87007 	ldrb	r7, [r8, r7]
20000efc:	e7c47003 	strb	r7, [r4, r3]
20000f00:	e2833001 	add	r3, r3, #1
20000f04:	e25cc001 	subs	ip, ip, #1
20000f08:	2afffff5 	bcs	20000ee4 <LzmaDec_WriteRem+0x74>
20000f0c:	e0811002 	add	r1, r1, r2
20000f10:	e5801024 	str	r1, [r0, #36]	; 0x24
20000f14:	e8bd81f0 	pop	{r4, r5, r6, r7, r8, pc}

Disassembly of section .text.LzmaDec_DecodeReal2:

20000f18 <LzmaDec_DecodeReal2>:
20000f18:	e92d4ff0 	push	{r4, r5, r6, r7, r8, r9, sl, fp, lr}
20000f1c:	e1a04000 	mov	r4, r0
20000f20:	e24dd04c 	sub	sp, sp, #76	; 0x4c
20000f24:	e58d1030 	str	r1, [sp, #48]	; 0x30
20000f28:	e58d203c 	str	r2, [sp, #60]	; 0x3c
20000f2c:	e5940030 	ldr	r0, [r4, #48]	; 0x30
20000f30:	e3500000 	cmp	r0, #0
20000f34:	e58d002c 	str	r0, [sp, #44]	; 0x2c
20000f38:	159d7030 	ldrne	r7, [sp, #48]	; 0x30
20000f3c:	158d7028 	strne	r7, [sp, #40]	; 0x28
20000f40:	1a00000a 	bne	20000f70 <LzmaDec_DecodeReal2+0x58>
20000f44:	e594302c 	ldr	r3, [r4, #44]	; 0x2c
20000f48:	e594200c 	ldr	r2, [r4, #12]
20000f4c:	e59d5030 	ldr	r5, [sp, #48]	; 0x30
20000f50:	e0632002 	rsb	r2, r3, r2
20000f54:	e5943024 	ldr	r3, [r4, #36]	; 0x24
20000f58:	e0631005 	rsb	r1, r3, r5
20000f5c:	e1510002 	cmp	r1, r2
20000f60:	80823003 	addhi	r3, r2, r3
20000f64:	858d3028 	strhi	r3, [sp, #40]	; 0x28
20000f68:	959d8030 	ldrls	r8, [sp, #48]	; 0x30
20000f6c:	958d8028 	strls	r8, [sp, #40]	; 0x28
20000f70:	e3a03001 	mov	r3, #1
20000f74:	e5942008 	ldr	r2, [r4, #8]
20000f78:	e5940044 	ldr	r0, [r4, #68]	; 0x44
20000f7c:	e3a08000 	mov	r8, #0
20000f80:	e1a02213 	lsl	r2, r3, r2
20000f84:	e594702c 	ldr	r7, [r4, #44]	; 0x2c
20000f88:	e2422001 	sub	r2, r2, #1
20000f8c:	e58d2040 	str	r2, [sp, #64]	; 0x40
20000f90:	e5942004 	ldr	r2, [r4, #4]
20000f94:	e594903c 	ldr	r9, [r4, #60]	; 0x3c
20000f98:	e1a03213 	lsl	r3, r3, r2
20000f9c:	e5942000 	ldr	r2, [r4]
20000fa0:	e2433001 	sub	r3, r3, #1
20000fa4:	e58d3044 	str	r3, [sp, #68]	; 0x44
20000fa8:	e5943014 	ldr	r3, [r4, #20]
20000fac:	e594a040 	ldr	sl, [r4, #64]	; 0x40
20000fb0:	e58d0010 	str	r0, [sp, #16]
20000fb4:	e58d2038 	str	r2, [sp, #56]	; 0x38
20000fb8:	e58d301c 	str	r3, [sp, #28]
20000fbc:	e5945028 	ldr	r5, [r4, #40]	; 0x28
20000fc0:	e58d7008 	str	r7, [sp, #8]
20000fc4:	e594c010 	ldr	ip, [r4, #16]
20000fc8:	e5941034 	ldr	r1, [r4, #52]	; 0x34
20000fcc:	e5946038 	ldr	r6, [r4, #56]	; 0x38
20000fd0:	e5940024 	ldr	r0, [r4, #36]	; 0x24
20000fd4:	e5942018 	ldr	r2, [r4, #24]
20000fd8:	e594701c 	ldr	r7, [r4, #28]
20000fdc:	e5943020 	ldr	r3, [r4, #32]
20000fe0:	e58d900c 	str	r9, [sp, #12]
20000fe4:	e58da004 	str	sl, [sp, #4]
20000fe8:	e58d5020 	str	r5, [sp, #32]
20000fec:	e58d8018 	str	r8, [sp, #24]
20000ff0:	e58d4034 	str	r4, [sp, #52]	; 0x34
20000ff4:	e59da040 	ldr	sl, [sp, #64]	; 0x40
20000ff8:	e3570401 	cmp	r7, #16777216	; 0x1000000
20000ffc:	e59d9008 	ldr	r9, [sp, #8]
20001000:	31a07407 	lslcc	r7, r7, #8
20001004:	34d24001 	ldrbcc	r4, [r2], #1
20001008:	e009500a 	and	r5, r9, sl
2000100c:	e085a201 	add	sl, r5, r1, lsl #4
20001010:	31843403 	orrcc	r3, r4, r3, lsl #8
20001014:	e1a045a7 	lsr	r4, r7, #11
20001018:	e1a0a08a 	lsl	sl, sl, #1
2000101c:	e19c80ba 	ldrh	r8, [ip, sl]
20001020:	e0040498 	mul	r4, r8, r4
20001024:	e1530004 	cmp	r3, r4
20001028:	2a000076 	bcs	20001208 <LzmaDec_DecodeReal2+0x2f0>
2000102c:	e2685b02 	rsb	r5, r8, #2048	; 0x800
20001030:	e59d702c 	ldr	r7, [sp, #44]	; 0x2c
20001034:	e08882a5 	add	r8, r8, r5, lsr #5
20001038:	e59d5008 	ldr	r5, [sp, #8]
2000103c:	e18c80ba 	strh	r8, [ip, sl]
20001040:	e28c8ee6 	add	r8, ip, #3680	; 0xe60
20001044:	e1955007 	orrs	r5, r5, r7
20001048:	e288800c 	add	r8, r8, #12
2000104c:	0a00000f 	beq	20001090 <LzmaDec_DecodeReal2+0x178>
20001050:	e59d9008 	ldr	r9, [sp, #8]
20001054:	e3500000 	cmp	r0, #0
20001058:	e59da044 	ldr	sl, [sp, #68]	; 0x44
2000105c:	e59d7038 	ldr	r7, [sp, #56]	; 0x38
20001060:	e009500a 	and	r5, r9, sl
20001064:	059d9020 	ldreq	r9, [sp, #32]
20001068:	e1a05715 	lsl	r5, r5, r7
2000106c:	02497001 	subeq	r7, r9, #1
20001070:	e59d901c 	ldr	r9, [sp, #28]
20001074:	12407001 	subne	r7, r0, #1
20001078:	e7d9a007 	ldrb	sl, [r9, r7]
2000107c:	e59d9038 	ldr	r9, [sp, #56]	; 0x38
20001080:	e2697008 	rsb	r7, r9, #8
20001084:	e085575a 	add	r5, r5, sl, asr r7
20001088:	e3a07c06 	mov	r7, #1536	; 0x600
2000108c:	e0288597 	mla	r8, r7, r5, r8
20001090:	e3510006 	cmp	r1, #6
20001094:	8a00001e 	bhi	20001114 <LzmaDec_DecodeReal2+0x1fc>
20001098:	e3510003 	cmp	r1, #3
2000109c:	31a05001 	movcc	r5, r1
200010a0:	23a05003 	movcs	r5, #3
200010a4:	e0651001 	rsb	r1, r5, r1
200010a8:	e3a05001 	mov	r5, #1
200010ac:	e3540401 	cmp	r4, #16777216	; 0x1000000
200010b0:	e1a07085 	lsl	r7, r5, #1
200010b4:	31a04404 	lslcc	r4, r4, #8
200010b8:	e0889007 	add	r9, r8, r7
200010bc:	34d2a001 	ldrbcc	sl, [r2], #1
200010c0:	e19870b7 	ldrh	r7, [r8, r7]
200010c4:	318a3403 	orrcc	r3, sl, r3, lsl #8
200010c8:	e1a0a5a4 	lsr	sl, r4, #11
200010cc:	e00a0a97 	mul	sl, r7, sl
200010d0:	e153000a 	cmp	r3, sl
200010d4:	2a000005 	bcs	200010f0 <LzmaDec_DecodeReal2+0x1d8>
200010d8:	e2674b02 	rsb	r4, r7, #2048	; 0x800
200010dc:	e1a05085 	lsl	r5, r5, #1
200010e0:	e08772a4 	add	r7, r7, r4, lsr #5
200010e4:	e1a0400a 	mov	r4, sl
200010e8:	e1c970b0 	strh	r7, [r9]
200010ec:	ea000005 	b	20001108 <LzmaDec_DecodeReal2+0x1f0>
200010f0:	e1a05085 	lsl	r5, r5, #1
200010f4:	e06a4004 	rsb	r4, sl, r4
200010f8:	e06a3003 	rsb	r3, sl, r3
200010fc:	e2855001 	add	r5, r5, #1
20001100:	e04772a7 	sub	r7, r7, r7, lsr #5
20001104:	e1c970b0 	strh	r7, [r9]
20001108:	e35500ff 	cmp	r5, #255	; 0xff
2000110c:	9affffe6 	bls	200010ac <LzmaDec_DecodeReal2+0x194>
20001110:	ea000034 	b	200011e8 <LzmaDec_DecodeReal2+0x2d0>
20001114:	e59d5034 	ldr	r5, [sp, #52]	; 0x34
20001118:	e1500006 	cmp	r0, r6
2000111c:	e0667000 	rsb	r7, r6, r0
20001120:	e1a0b00c 	mov	fp, ip
20001124:	e595a014 	ldr	sl, [r5, #20]
20001128:	e59d5020 	ldr	r5, [sp, #32]
2000112c:	23a05000 	movcs	r5, #0
20001130:	e08a7007 	add	r7, sl, r7
20001134:	e3510009 	cmp	r1, #9
20001138:	e7d77005 	ldrb	r7, [r7, r5]
2000113c:	83a05006 	movhi	r5, #6
20001140:	93a05003 	movls	r5, #3
20001144:	e0651001 	rsb	r1, r5, r1
20001148:	e3a05001 	mov	r5, #1
2000114c:	e58d7014 	str	r7, [sp, #20]
20001150:	e3a07c01 	mov	r7, #256	; 0x100
20001154:	e59d9014 	ldr	r9, [sp, #20]
20001158:	e085c007 	add	ip, r5, r7
2000115c:	e3540401 	cmp	r4, #16777216	; 0x1000000
20001160:	31a04404 	lslcc	r4, r4, #8
20001164:	e1a09089 	lsl	r9, r9, #1
20001168:	e58d9014 	str	r9, [sp, #20]
2000116c:	e0099007 	and	r9, r9, r7
20001170:	e08cc009 	add	ip, ip, r9
20001174:	e1a0c08c 	lsl	ip, ip, #1
20001178:	e088a00c 	add	sl, r8, ip
2000117c:	e58da024 	str	sl, [sp, #36]	; 0x24
20001180:	34d2a001 	ldrbcc	sl, [r2], #1
20001184:	e198c0bc 	ldrh	ip, [r8, ip]
20001188:	318a3403 	orrcc	r3, sl, r3, lsl #8
2000118c:	e1a0a5a4 	lsr	sl, r4, #11
20001190:	e00a0a9c 	mul	sl, ip, sl
20001194:	e153000a 	cmp	r3, sl
20001198:	2a000007 	bcs	200011bc <LzmaDec_DecodeReal2+0x2a4>
2000119c:	e26c4b02 	rsb	r4, ip, #2048	; 0x800
200011a0:	e1a05085 	lsl	r5, r5, #1
200011a4:	e1c77009 	bic	r7, r7, r9
200011a8:	e08cc2a4 	add	ip, ip, r4, lsr #5
200011ac:	e59d4024 	ldr	r4, [sp, #36]	; 0x24
200011b0:	e1c4c0b0 	strh	ip, [r4]
200011b4:	e1a0400a 	mov	r4, sl
200011b8:	ea000007 	b	200011dc <LzmaDec_DecodeReal2+0x2c4>
200011bc:	e06a4004 	rsb	r4, sl, r4
200011c0:	e06a3003 	rsb	r3, sl, r3
200011c4:	e1a05085 	lsl	r5, r5, #1
200011c8:	e59da024 	ldr	sl, [sp, #36]	; 0x24
200011cc:	e2855001 	add	r5, r5, #1
200011d0:	e0077009 	and	r7, r7, r9
200011d4:	e04cc2ac 	sub	ip, ip, ip, lsr #5
200011d8:	e1cac0b0 	strh	ip, [sl]
200011dc:	e35500ff 	cmp	r5, #255	; 0xff
200011e0:	9affffdb 	bls	20001154 <LzmaDec_DecodeReal2+0x23c>
200011e4:	e1a0c00b 	mov	ip, fp
200011e8:	e59d701c 	ldr	r7, [sp, #28]
200011ec:	e7c75000 	strb	r5, [r7, r0]
200011f0:	e2800001 	add	r0, r0, #1
200011f4:	e59d8008 	ldr	r8, [sp, #8]
200011f8:	e1a07004 	mov	r7, r4
200011fc:	e2888001 	add	r8, r8, #1
20001200:	e58d8008 	str	r8, [sp, #8]
20001204:	ea000239 	b	20001af0 <LzmaDec_DecodeReal2+0xbd8>
20001208:	e0647007 	rsb	r7, r4, r7
2000120c:	e04882a8 	sub	r8, r8, r8, lsr #5
20001210:	e18c80ba 	strh	r8, [ip, sl]
20001214:	e281a0c0 	add	sl, r1, #192	; 0xc0
20001218:	e3570401 	cmp	r7, #16777216	; 0x1000000
2000121c:	e0643003 	rsb	r3, r4, r3
20001220:	e1a0a08a 	lsl	sl, sl, #1
20001224:	31a07407 	lslcc	r7, r7, #8
20001228:	34d24001 	ldrbcc	r4, [r2], #1
2000122c:	e19c80ba 	ldrh	r8, [ip, sl]
20001230:	31843403 	orrcc	r3, r4, r3, lsl #8
20001234:	e1a045a7 	lsr	r4, r7, #11
20001238:	e0040498 	mul	r4, r8, r4
2000123c:	e1530004 	cmp	r3, r4
20001240:	2a00000d 	bcs	2000127c <LzmaDec_DecodeReal2+0x364>
20001244:	e2687b02 	rsb	r7, r8, #2048	; 0x800
20001248:	e59d9010 	ldr	r9, [sp, #16]
2000124c:	e281100c 	add	r1, r1, #12
20001250:	e08882a7 	add	r8, r8, r7, lsr #5
20001254:	e59d7004 	ldr	r7, [sp, #4]
20001258:	e18c80ba 	strh	r8, [ip, sl]
2000125c:	e28cae66 	add	sl, ip, #1632	; 0x660
20001260:	e59d800c 	ldr	r8, [sp, #12]
20001264:	e28aa004 	add	sl, sl, #4
20001268:	e58d9024 	str	r9, [sp, #36]	; 0x24
2000126c:	e58d7010 	str	r7, [sp, #16]
20001270:	e58d8004 	str	r8, [sp, #4]
20001274:	e58d600c 	str	r6, [sp, #12]
20001278:	ea000079 	b	20001464 <LzmaDec_DecodeReal2+0x54c>
2000127c:	e04882a8 	sub	r8, r8, r8, lsr #5
20001280:	e59d9008 	ldr	r9, [sp, #8]
20001284:	e18c80ba 	strh	r8, [ip, sl]
20001288:	e59da02c 	ldr	sl, [sp, #44]	; 0x2c
2000128c:	e199900a 	orrs	r9, r9, sl
20001290:	0a000248 	beq	20001bb8 <LzmaDec_DecodeReal2+0xca0>
20001294:	e0647007 	rsb	r7, r4, r7
20001298:	e281a0cc 	add	sl, r1, #204	; 0xcc
2000129c:	e3570401 	cmp	r7, #16777216	; 0x1000000
200012a0:	e0643003 	rsb	r3, r4, r3
200012a4:	e1a0a08a 	lsl	sl, sl, #1
200012a8:	31a07407 	lslcc	r7, r7, #8
200012ac:	34d24001 	ldrbcc	r4, [r2], #1
200012b0:	e19c80ba 	ldrh	r8, [ip, sl]
200012b4:	31843403 	orrcc	r3, r4, r3, lsl #8
200012b8:	e1a045a7 	lsr	r4, r7, #11
200012bc:	e0040498 	mul	r4, r8, r4
200012c0:	e1530004 	cmp	r3, r4
200012c4:	2a000029 	bcs	20001370 <LzmaDec_DecodeReal2+0x458>
200012c8:	e2687b02 	rsb	r7, r8, #2048	; 0x800
200012cc:	e3540401 	cmp	r4, #16777216	; 0x1000000
200012d0:	31a04404 	lslcc	r4, r4, #8
200012d4:	e08882a7 	add	r8, r8, r7, lsr #5
200012d8:	e18c80ba 	strh	r8, [ip, sl]
200012dc:	e281a00f 	add	sl, r1, #15
200012e0:	34d27001 	ldrbcc	r7, [r2], #1
200012e4:	e085a20a 	add	sl, r5, sl, lsl #4
200012e8:	31873403 	orrcc	r3, r7, r3, lsl #8
200012ec:	e1a075a4 	lsr	r7, r4, #11
200012f0:	e1a0a08a 	lsl	sl, sl, #1
200012f4:	e19c80ba 	ldrh	r8, [ip, sl]
200012f8:	e0070798 	mul	r7, r8, r7
200012fc:	e1530007 	cmp	r3, r7
20001300:	2a000012 	bcs	20001350 <LzmaDec_DecodeReal2+0x438>
20001304:	e2684b02 	rsb	r4, r8, #2048	; 0x800
20001308:	e1500006 	cmp	r0, r6
2000130c:	e0665000 	rsb	r5, r6, r0
20001310:	e08882a4 	add	r8, r8, r4, lsr #5
20001314:	e18c80ba 	strh	r8, [ip, sl]
20001318:	e59d801c 	ldr	r8, [sp, #28]
2000131c:	e59d4020 	ldr	r4, [sp, #32]
20001320:	23a04000 	movcs	r4, #0
20001324:	e0885005 	add	r5, r8, r5
20001328:	e3510006 	cmp	r1, #6
2000132c:	83a0100b 	movhi	r1, #11
20001330:	93a01009 	movls	r1, #9
20001334:	e7d54004 	ldrb	r4, [r5, r4]
20001338:	e7c84000 	strb	r4, [r8, r0]
2000133c:	e2800001 	add	r0, r0, #1
20001340:	e59d9008 	ldr	r9, [sp, #8]
20001344:	e2899001 	add	r9, r9, #1
20001348:	e58d9008 	str	r9, [sp, #8]
2000134c:	ea0001e7 	b	20001af0 <LzmaDec_DecodeReal2+0xbd8>
20001350:	e0674004 	rsb	r4, r7, r4
20001354:	e0673003 	rsb	r3, r7, r3
20001358:	e04882a8 	sub	r8, r8, r8, lsr #5
2000135c:	e59d7004 	ldr	r7, [sp, #4]
20001360:	e18c80ba 	strh	r8, [ip, sl]
20001364:	e58d6004 	str	r6, [sp, #4]
20001368:	e59d600c 	ldr	r6, [sp, #12]
2000136c:	ea000014 	b	200013c4 <LzmaDec_DecodeReal2+0x4ac>
20001370:	e0647007 	rsb	r7, r4, r7
20001374:	e04882a8 	sub	r8, r8, r8, lsr #5
20001378:	e18c80ba 	strh	r8, [ip, sl]
2000137c:	e281a0d8 	add	sl, r1, #216	; 0xd8
20001380:	e3570401 	cmp	r7, #16777216	; 0x1000000
20001384:	e0643003 	rsb	r3, r4, r3
20001388:	e1a0a08a 	lsl	sl, sl, #1
2000138c:	31a07407 	lslcc	r7, r7, #8
20001390:	34d24001 	ldrbcc	r4, [r2], #1
20001394:	e19c80ba 	ldrh	r8, [ip, sl]
20001398:	31843403 	orrcc	r3, r4, r3, lsl #8
2000139c:	e1a045a7 	lsr	r4, r7, #11
200013a0:	e0040498 	mul	r4, r8, r4
200013a4:	e1530004 	cmp	r3, r4
200013a8:	2a000007 	bcs	200013cc <LzmaDec_DecodeReal2+0x4b4>
200013ac:	e2687b02 	rsb	r7, r8, #2048	; 0x800
200013b0:	e08882a7 	add	r8, r8, r7, lsr #5
200013b4:	e18c80ba 	strh	r8, [ip, sl]
200013b8:	e59da00c 	ldr	sl, [sp, #12]
200013bc:	e59d7004 	ldr	r7, [sp, #4]
200013c0:	e58da004 	str	sl, [sp, #4]
200013c4:	e58d700c 	str	r7, [sp, #12]
200013c8:	ea000019 	b	20001434 <LzmaDec_DecodeReal2+0x51c>
200013cc:	e0647007 	rsb	r7, r4, r7
200013d0:	e04882a8 	sub	r8, r8, r8, lsr #5
200013d4:	e18c80ba 	strh	r8, [ip, sl]
200013d8:	e281a0e4 	add	sl, r1, #228	; 0xe4
200013dc:	e3570401 	cmp	r7, #16777216	; 0x1000000
200013e0:	e0643003 	rsb	r3, r4, r3
200013e4:	e1a0a08a 	lsl	sl, sl, #1
200013e8:	31a07407 	lslcc	r7, r7, #8
200013ec:	34d24001 	ldrbcc	r4, [r2], #1
200013f0:	e19c80ba 	ldrh	r8, [ip, sl]
200013f4:	31843403 	orrcc	r3, r4, r3, lsl #8
200013f8:	e1a045a7 	lsr	r4, r7, #11
200013fc:	e0040498 	mul	r4, r8, r4
20001400:	e1530004 	cmp	r3, r4
20001404:	32687b02 	rsbcc	r7, r8, #2048	; 0x800
20001408:	308882a7 	addcc	r8, r8, r7, lsr #5
2000140c:	318c80ba 	strhcc	r8, [ip, sl]
20001410:	3a000007 	bcc	20001434 <LzmaDec_DecodeReal2+0x51c>
20001414:	e04882a8 	sub	r8, r8, r8, lsr #5
20001418:	e0643003 	rsb	r3, r4, r3
2000141c:	e18c80ba 	strh	r8, [ip, sl]
20001420:	e0644007 	rsb	r4, r4, r7
20001424:	e59d8010 	ldr	r8, [sp, #16]
20001428:	e59d7004 	ldr	r7, [sp, #4]
2000142c:	e58d8004 	str	r8, [sp, #4]
20001430:	e58d7010 	str	r7, [sp, #16]
20001434:	e3510006 	cmp	r1, #6
20001438:	e59d9010 	ldr	r9, [sp, #16]
2000143c:	e59d700c 	ldr	r7, [sp, #12]
20001440:	e28caea6 	add	sl, ip, #2656	; 0xa60
20001444:	e59d8004 	ldr	r8, [sp, #4]
20001448:	83a0100b 	movhi	r1, #11
2000144c:	93a01008 	movls	r1, #8
20001450:	e28aa008 	add	sl, sl, #8
20001454:	e58d9024 	str	r9, [sp, #36]	; 0x24
20001458:	e58d7010 	str	r7, [sp, #16]
2000145c:	e58d800c 	str	r8, [sp, #12]
20001460:	e58d6004 	str	r6, [sp, #4]
20001464:	e3540401 	cmp	r4, #16777216	; 0x1000000
20001468:	e1da60b0 	ldrh	r6, [sl]
2000146c:	31a04404 	lslcc	r4, r4, #8
20001470:	34d27001 	ldrbcc	r7, [r2], #1
20001474:	31873403 	orrcc	r3, r7, r3, lsl #8
20001478:	e1a075a4 	lsr	r7, r4, #11
2000147c:	e0070796 	mul	r7, r6, r7
20001480:	e1530007 	cmp	r3, r7
20001484:	2a000007 	bcs	200014a8 <LzmaDec_DecodeReal2+0x590>
20001488:	e2664b02 	rsb	r4, r6, #2048	; 0x800
2000148c:	e3a08000 	mov	r8, #0
20001490:	e08662a4 	add	r6, r6, r4, lsr #5
20001494:	e1ca60b0 	strh	r6, [sl]
20001498:	e08aa205 	add	sl, sl, r5, lsl #4
2000149c:	e3a06008 	mov	r6, #8
200014a0:	e28aa004 	add	sl, sl, #4
200014a4:	ea00001c 	b	2000151c <LzmaDec_DecodeReal2+0x604>
200014a8:	e0674004 	rsb	r4, r7, r4
200014ac:	e1a0800a 	mov	r8, sl
200014b0:	e3540401 	cmp	r4, #16777216	; 0x1000000
200014b4:	e0673003 	rsb	r3, r7, r3
200014b8:	e04662a6 	sub	r6, r6, r6, lsr #5
200014bc:	31a04404 	lslcc	r4, r4, #8
200014c0:	e0c860b2 	strh	r6, [r8], #2
200014c4:	34d27001 	ldrbcc	r7, [r2], #1
200014c8:	e1da60b2 	ldrh	r6, [sl, #2]
200014cc:	31873403 	orrcc	r3, r7, r3, lsl #8
200014d0:	e1a075a4 	lsr	r7, r4, #11
200014d4:	e0070796 	mul	r7, r6, r7
200014d8:	e1530007 	cmp	r3, r7
200014dc:	2a000007 	bcs	20001500 <LzmaDec_DecodeReal2+0x5e8>
200014e0:	e2664b02 	rsb	r4, r6, #2048	; 0x800
200014e4:	e08aa205 	add	sl, sl, r5, lsl #4
200014e8:	e28aaf41 	add	sl, sl, #260	; 0x104
200014ec:	e08662a4 	add	r6, r6, r4, lsr #5
200014f0:	e1c860b0 	strh	r6, [r8]
200014f4:	e3a08008 	mov	r8, #8
200014f8:	e1a06008 	mov	r6, r8
200014fc:	ea000006 	b	2000151c <LzmaDec_DecodeReal2+0x604>
20001500:	e04662a6 	sub	r6, r6, r6, lsr #5
20001504:	e0673003 	rsb	r3, r7, r3
20001508:	e1c860b0 	strh	r6, [r8]
2000150c:	e28aaf81 	add	sl, sl, #516	; 0x204
20001510:	e0677004 	rsb	r7, r7, r4
20001514:	e3a08010 	mov	r8, #16
20001518:	e3a06c01 	mov	r6, #256	; 0x100
2000151c:	e3a04001 	mov	r4, #1
20001520:	e3570401 	cmp	r7, #16777216	; 0x1000000
20001524:	e1a05084 	lsl	r5, r4, #1
20001528:	31a07407 	lslcc	r7, r7, #8
2000152c:	e08ab005 	add	fp, sl, r5
20001530:	34d29001 	ldrbcc	r9, [r2], #1
20001534:	e19a50b5 	ldrh	r5, [sl, r5]
20001538:	31893403 	orrcc	r3, r9, r3, lsl #8
2000153c:	e1a095a7 	lsr	r9, r7, #11
20001540:	e0090995 	mul	r9, r5, r9
20001544:	e1530009 	cmp	r3, r9
20001548:	2a000005 	bcs	20001564 <LzmaDec_DecodeReal2+0x64c>
2000154c:	e2657b02 	rsb	r7, r5, #2048	; 0x800
20001550:	e1a04084 	lsl	r4, r4, #1
20001554:	e08552a7 	add	r5, r5, r7, lsr #5
20001558:	e1a07009 	mov	r7, r9
2000155c:	e1cb50b0 	strh	r5, [fp]
20001560:	ea000005 	b	2000157c <LzmaDec_DecodeReal2+0x664>
20001564:	e1a04084 	lsl	r4, r4, #1
20001568:	e0697007 	rsb	r7, r9, r7
2000156c:	e0693003 	rsb	r3, r9, r3
20001570:	e2844001 	add	r4, r4, #1
20001574:	e04552a5 	sub	r5, r5, r5, lsr #5
20001578:	e1cb50b0 	strh	r5, [fp]
2000157c:	e1540006 	cmp	r4, r6
20001580:	3affffe6 	bcc	20001520 <LzmaDec_DecodeReal2+0x608>
20001584:	e351000b 	cmp	r1, #11
20001588:	e0666008 	rsb	r6, r6, r8
2000158c:	e0866004 	add	r6, r6, r4
20001590:	e58d6014 	str	r6, [sp, #20]
20001594:	9a000121 	bls	20001a20 <LzmaDec_DecodeReal2+0xb08>
20001598:	e3560003 	cmp	r6, #3
2000159c:	91a05386 	lslls	r5, r6, #7
200015a0:	83a05e4e 	movhi	r5, #1248	; 0x4e0
200015a4:	92855e36 	addls	r5, r5, #864	; 0x360
200015a8:	e3570401 	cmp	r7, #16777216	; 0x1000000
200015ac:	e08c5005 	add	r5, ip, r5
200015b0:	31a07407 	lslcc	r7, r7, #8
200015b4:	34d24001 	ldrbcc	r4, [r2], #1
200015b8:	e1d560b2 	ldrh	r6, [r5, #2]
200015bc:	31843403 	orrcc	r3, r4, r3, lsl #8
200015c0:	e1a045a7 	lsr	r4, r7, #11
200015c4:	e0040496 	mul	r4, r6, r4
200015c8:	e1530004 	cmp	r3, r4
200015cc:	32667b02 	rsbcc	r7, r6, #2048	; 0x800
200015d0:	20643003 	rsbcs	r3, r4, r3
200015d4:	33a08002 	movcc	r8, #2
200015d8:	23a08003 	movcs	r8, #3
200015dc:	20644007 	rsbcs	r4, r4, r7
200015e0:	308662a7 	addcc	r6, r6, r7, lsr #5
200015e4:	204662a6 	subcs	r6, r6, r6, lsr #5
200015e8:	31c560b2 	strhcc	r6, [r5, #2]
200015ec:	21c560b2 	strhcs	r6, [r5, #2]
200015f0:	e3540401 	cmp	r4, #16777216	; 0x1000000
200015f4:	e1a0a088 	lsl	sl, r8, #1
200015f8:	31a04404 	lslcc	r4, r4, #8
200015fc:	34d27001 	ldrbcc	r7, [r2], #1
20001600:	e19560ba 	ldrh	r6, [r5, sl]
20001604:	31873403 	orrcc	r3, r7, r3, lsl #8
20001608:	e1a075a4 	lsr	r7, r4, #11
2000160c:	e0070796 	mul	r7, r6, r7
20001610:	e1530007 	cmp	r3, r7
20001614:	21a08088 	lslcs	r8, r8, #1
20001618:	32664b02 	rsbcc	r4, r6, #2048	; 0x800
2000161c:	20673003 	rsbcs	r3, r7, r3
20001620:	31a08088 	lslcc	r8, r8, #1
20001624:	20677004 	rsbcs	r7, r7, r4
20001628:	22888001 	addcs	r8, r8, #1
2000162c:	308662a4 	addcc	r6, r6, r4, lsr #5
20001630:	204662a6 	subcs	r6, r6, r6, lsr #5
20001634:	318560ba 	strhcc	r6, [r5, sl]
20001638:	218560ba 	strhcs	r6, [r5, sl]
2000163c:	e3570401 	cmp	r7, #16777216	; 0x1000000
20001640:	e1a0a088 	lsl	sl, r8, #1
20001644:	31a07407 	lslcc	r7, r7, #8
20001648:	34d26001 	ldrbcc	r6, [r2], #1
2000164c:	e19540ba 	ldrh	r4, [r5, sl]
20001650:	31863403 	orrcc	r3, r6, r3, lsl #8
20001654:	e1a065a7 	lsr	r6, r7, #11
20001658:	e0060694 	mul	r6, r4, r6
2000165c:	e1530006 	cmp	r3, r6
20001660:	32647b02 	rsbcc	r7, r4, #2048	; 0x800
20001664:	204442a4 	subcs	r4, r4, r4, lsr #5
20001668:	218540ba 	strhcs	r4, [r5, sl]
2000166c:	21a04088 	lslcs	r4, r8, #1
20001670:	308442a7 	addcc	r4, r4, r7, lsr #5
20001674:	20663003 	rsbcs	r3, r6, r3
20001678:	318540ba 	strhcc	r4, [r5, sl]
2000167c:	22844001 	addcs	r4, r4, #1
20001680:	31a04088 	lslcc	r4, r8, #1
20001684:	20666007 	rsbcs	r6, r6, r7
20001688:	e3560401 	cmp	r6, #16777216	; 0x1000000
2000168c:	e1a0a084 	lsl	sl, r4, #1
20001690:	31a06406 	lslcc	r6, r6, #8
20001694:	34d27001 	ldrbcc	r7, [r2], #1
20001698:	e19580ba 	ldrh	r8, [r5, sl]
2000169c:	31873403 	orrcc	r3, r7, r3, lsl #8
200016a0:	e1a075a6 	lsr	r7, r6, #11
200016a4:	e0070798 	mul	r7, r8, r7
200016a8:	e1530007 	cmp	r3, r7
200016ac:	21a04084 	lslcs	r4, r4, #1
200016b0:	32686b02 	rsbcc	r6, r8, #2048	; 0x800
200016b4:	20673003 	rsbcs	r3, r7, r3
200016b8:	31a04084 	lslcc	r4, r4, #1
200016bc:	22844001 	addcs	r4, r4, #1
200016c0:	20677006 	rsbcs	r7, r7, r6
200016c4:	308882a6 	addcc	r8, r8, r6, lsr #5
200016c8:	204882a8 	subcs	r8, r8, r8, lsr #5
200016cc:	318580ba 	strhcc	r8, [r5, sl]
200016d0:	218580ba 	strhcs	r8, [r5, sl]
200016d4:	e3570401 	cmp	r7, #16777216	; 0x1000000
200016d8:	e1a0a084 	lsl	sl, r4, #1
200016dc:	31a07407 	lslcc	r7, r7, #8
200016e0:	34d26001 	ldrbcc	r6, [r2], #1
200016e4:	e19580ba 	ldrh	r8, [r5, sl]
200016e8:	31863403 	orrcc	r3, r6, r3, lsl #8
200016ec:	e1a065a7 	lsr	r6, r7, #11
200016f0:	e0060698 	mul	r6, r8, r6
200016f4:	e1530006 	cmp	r3, r6
200016f8:	21a04084 	lslcs	r4, r4, #1
200016fc:	32687b02 	rsbcc	r7, r8, #2048	; 0x800
20001700:	20663003 	rsbcs	r3, r6, r3
20001704:	31a04084 	lslcc	r4, r4, #1
20001708:	20666007 	rsbcs	r6, r6, r7
2000170c:	22844001 	addcs	r4, r4, #1
20001710:	308882a7 	addcc	r8, r8, r7, lsr #5
20001714:	204882a8 	subcs	r8, r8, r8, lsr #5
20001718:	318580ba 	strhcc	r8, [r5, sl]
2000171c:	218580ba 	strhcs	r8, [r5, sl]
20001720:	e3560401 	cmp	r6, #16777216	; 0x1000000
20001724:	e1a0a084 	lsl	sl, r4, #1
20001728:	31a06406 	lslcc	r6, r6, #8
2000172c:	34d27001 	ldrbcc	r7, [r2], #1
20001730:	e19580ba 	ldrh	r8, [r5, sl]
20001734:	31873403 	orrcc	r3, r7, r3, lsl #8
20001738:	e1a075a6 	lsr	r7, r6, #11
2000173c:	e0070798 	mul	r7, r8, r7
20001740:	e1530007 	cmp	r3, r7
20001744:	21a04084 	lslcs	r4, r4, #1
20001748:	32686b02 	rsbcc	r6, r8, #2048	; 0x800
2000174c:	31a04084 	lslcc	r4, r4, #1
20001750:	22844001 	addcs	r4, r4, #1
20001754:	e2444040 	sub	r4, r4, #64	; 0x40
20001758:	308882a6 	addcc	r8, r8, r6, lsr #5
2000175c:	20673003 	rsbcs	r3, r7, r3
20001760:	204882a8 	subcs	r8, r8, r8, lsr #5
20001764:	318580ba 	strhcc	r8, [r5, sl]
20001768:	20677006 	rsbcs	r7, r7, r6
2000176c:	218580ba 	strhcs	r8, [r5, sl]
20001770:	e3540003 	cmp	r4, #3
20001774:	9a00009b 	bls	200019e8 <LzmaDec_DecodeReal2+0xad0>
20001778:	e354000d 	cmp	r4, #13
2000177c:	e1a060a4 	lsr	r6, r4, #1
20001780:	e2045001 	and	r5, r4, #1
20001784:	e2468001 	sub	r8, r6, #1
20001788:	e3855002 	orr	r5, r5, #2
2000178c:	8a000026 	bhi	2000182c <LzmaDec_DecodeReal2+0x914>
20001790:	e264bfab 	rsb	fp, r4, #684	; 0x2ac
20001794:	e1a05815 	lsl	r5, r5, r8
20001798:	e28bb003 	add	fp, fp, #3
2000179c:	e1a0900c 	mov	r9, ip
200017a0:	e08bb005 	add	fp, fp, r5
200017a4:	e1a04005 	mov	r4, r5
200017a8:	e3a05001 	mov	r5, #1
200017ac:	e58d5018 	str	r5, [sp, #24]
200017b0:	e08cb08b 	add	fp, ip, fp, lsl #1
200017b4:	e3570401 	cmp	r7, #16777216	; 0x1000000
200017b8:	e1a0a085 	lsl	sl, r5, #1
200017bc:	31a07407 	lslcc	r7, r7, #8
200017c0:	34d26001 	ldrbcc	r6, [r2], #1
200017c4:	e19bc0ba 	ldrh	ip, [fp, sl]
200017c8:	31863403 	orrcc	r3, r6, r3, lsl #8
200017cc:	e1a065a7 	lsr	r6, r7, #11
200017d0:	e006069c 	mul	r6, ip, r6
200017d4:	e1530006 	cmp	r3, r6
200017d8:	2a000005 	bcs	200017f4 <LzmaDec_DecodeReal2+0x8dc>
200017dc:	e26c7b02 	rsb	r7, ip, #2048	; 0x800
200017e0:	e1a05085 	lsl	r5, r5, #1
200017e4:	e08cc2a7 	add	ip, ip, r7, lsr #5
200017e8:	e1a07006 	mov	r7, r6
200017ec:	e18bc0ba 	strh	ip, [fp, sl]
200017f0:	ea000007 	b	20001814 <LzmaDec_DecodeReal2+0x8fc>
200017f4:	e04cc2ac 	sub	ip, ip, ip, lsr #5
200017f8:	e18bc0ba 	strh	ip, [fp, sl]
200017fc:	e59da018 	ldr	sl, [sp, #24]
20001800:	e1a05085 	lsl	r5, r5, #1
20001804:	e0667007 	rsb	r7, r6, r7
20001808:	e0663003 	rsb	r3, r6, r3
2000180c:	e2855001 	add	r5, r5, #1
20001810:	e184400a 	orr	r4, r4, sl
20001814:	e2588001 	subs	r8, r8, #1
20001818:	0a000071 	beq	200019e4 <LzmaDec_DecodeReal2+0xacc>
2000181c:	e59dc018 	ldr	ip, [sp, #24]
20001820:	e1a0c08c 	lsl	ip, ip, #1
20001824:	e58dc018 	str	ip, [sp, #24]
20001828:	eaffffe1 	b	200017b4 <LzmaDec_DecodeReal2+0x89c>
2000182c:	e2466005 	sub	r6, r6, #5
20001830:	e3570401 	cmp	r7, #16777216	; 0x1000000
20001834:	31a07407 	lslcc	r7, r7, #8
20001838:	34d24001 	ldrbcc	r4, [r2], #1
2000183c:	e1a070a7 	lsr	r7, r7, #1
20001840:	31843403 	orrcc	r3, r4, r3, lsl #8
20001844:	e2566001 	subs	r6, r6, #1
20001848:	e0673003 	rsb	r3, r7, r3
2000184c:	e1a04fc3 	asr	r4, r3, #31
20001850:	e0845085 	add	r5, r4, r5, lsl #1
20001854:	e0044007 	and	r4, r4, r7
20001858:	e2855001 	add	r5, r5, #1
2000185c:	e0843003 	add	r3, r4, r3
20001860:	1afffff2 	bne	20001830 <LzmaDec_DecodeReal2+0x918>
20001864:	e3570401 	cmp	r7, #16777216	; 0x1000000
20001868:	e28cad19 	add	sl, ip, #1600	; 0x640
2000186c:	31a07407 	lslcc	r7, r7, #8
20001870:	e1a04205 	lsl	r4, r5, #4
20001874:	34d25001 	ldrbcc	r5, [r2], #1
20001878:	e28a6004 	add	r6, sl, #4
2000187c:	e1da80b6 	ldrh	r8, [sl, #6]
20001880:	31853403 	orrcc	r3, r5, r3, lsl #8
20001884:	e1a055a7 	lsr	r5, r7, #11
20001888:	e0050598 	mul	r5, r8, r5
2000188c:	e1530005 	cmp	r3, r5
20001890:	32687b02 	rsbcc	r7, r8, #2048	; 0x800
20001894:	20653003 	rsbcs	r3, r5, r3
20001898:	204882a8 	subcs	r8, r8, r8, lsr #5
2000189c:	20655007 	rsbcs	r5, r5, r7
200018a0:	308882a7 	addcc	r8, r8, r7, lsr #5
200018a4:	21ca80b6 	strhcs	r8, [sl, #6]
200018a8:	31ca80b6 	strhcc	r8, [sl, #6]
200018ac:	23a0a003 	movcs	sl, #3
200018b0:	33a0a002 	movcc	sl, #2
200018b4:	23844001 	orrcs	r4, r4, #1
200018b8:	e3550401 	cmp	r5, #16777216	; 0x1000000
200018bc:	e1a0908a 	lsl	r9, sl, #1
200018c0:	31a05405 	lslcc	r5, r5, #8
200018c4:	34d27001 	ldrbcc	r7, [r2], #1
200018c8:	e19680b9 	ldrh	r8, [r6, r9]
200018cc:	31873403 	orrcc	r3, r7, r3, lsl #8
200018d0:	e1a075a5 	lsr	r7, r5, #11
200018d4:	e0070798 	mul	r7, r8, r7
200018d8:	e1530007 	cmp	r3, r7
200018dc:	32685b02 	rsbcc	r5, r8, #2048	; 0x800
200018e0:	31a0a08a 	lslcc	sl, sl, #1
200018e4:	308882a5 	addcc	r8, r8, r5, lsr #5
200018e8:	318680b9 	strhcc	r8, [r6, r9]
200018ec:	3a000006 	bcc	2000190c <LzmaDec_DecodeReal2+0x9f4>
200018f0:	e1a0a08a 	lsl	sl, sl, #1
200018f4:	e0673003 	rsb	r3, r7, r3
200018f8:	e28aa001 	add	sl, sl, #1
200018fc:	e3844002 	orr	r4, r4, #2
20001900:	e0677005 	rsb	r7, r7, r5
20001904:	e04882a8 	sub	r8, r8, r8, lsr #5
20001908:	e18680b9 	strh	r8, [r6, r9]
2000190c:	e3570401 	cmp	r7, #16777216	; 0x1000000
20001910:	e1a0908a 	lsl	r9, sl, #1
20001914:	31a07407 	lslcc	r7, r7, #8
20001918:	34d25001 	ldrbcc	r5, [r2], #1
2000191c:	e19680b9 	ldrh	r8, [r6, r9]
20001920:	31853403 	orrcc	r3, r5, r3, lsl #8
20001924:	e1a055a7 	lsr	r5, r7, #11
20001928:	e0050598 	mul	r5, r8, r5
2000192c:	e1530005 	cmp	r3, r5
20001930:	32687b02 	rsbcc	r7, r8, #2048	; 0x800
20001934:	31a0a08a 	lslcc	sl, sl, #1
20001938:	308882a7 	addcc	r8, r8, r7, lsr #5
2000193c:	318680b9 	strhcc	r8, [r6, r9]
20001940:	3a000006 	bcc	20001960 <LzmaDec_DecodeReal2+0xa48>
20001944:	e1a0a08a 	lsl	sl, sl, #1
20001948:	e0653003 	rsb	r3, r5, r3
2000194c:	e28aa001 	add	sl, sl, #1
20001950:	e3844004 	orr	r4, r4, #4
20001954:	e0655007 	rsb	r5, r5, r7
20001958:	e04882a8 	sub	r8, r8, r8, lsr #5
2000195c:	e18680b9 	strh	r8, [r6, r9]
20001960:	e3550401 	cmp	r5, #16777216	; 0x1000000
20001964:	e1a0a08a 	lsl	sl, sl, #1
20001968:	31a05405 	lslcc	r5, r5, #8
2000196c:	34d27001 	ldrbcc	r7, [r2], #1
20001970:	e19680ba 	ldrh	r8, [r6, sl]
20001974:	31873403 	orrcc	r3, r7, r3, lsl #8
20001978:	e1a075a5 	lsr	r7, r5, #11
2000197c:	e0070798 	mul	r7, r8, r7
20001980:	e1530007 	cmp	r3, r7
20001984:	32685b02 	rsbcc	r5, r8, #2048	; 0x800
20001988:	23844008 	orrcs	r4, r4, #8
2000198c:	20673003 	rsbcs	r3, r7, r3
20001990:	204882a8 	subcs	r8, r8, r8, lsr #5
20001994:	308882a5 	addcc	r8, r8, r5, lsr #5
20001998:	218680ba 	strhcs	r8, [r6, sl]
2000199c:	318680ba 	strhcc	r8, [r6, sl]
200019a0:	20677005 	rsbcs	r7, r7, r5
200019a4:	e3740001 	cmn	r4, #1
200019a8:	1a00000e 	bne	200019e8 <LzmaDec_DecodeReal2+0xad0>
200019ac:	e59d9004 	ldr	r9, [sp, #4]
200019b0:	e241100c 	sub	r1, r1, #12
200019b4:	e59da010 	ldr	sl, [sp, #16]
200019b8:	e59d8014 	ldr	r8, [sp, #20]
200019bc:	e59dc024 	ldr	ip, [sp, #36]	; 0x24
200019c0:	e2885e11 	add	r5, r8, #272	; 0x110
200019c4:	e59d600c 	ldr	r6, [sp, #12]
200019c8:	e2855002 	add	r5, r5, #2
200019cc:	e59d4034 	ldr	r4, [sp, #52]	; 0x34
200019d0:	e58d5018 	str	r5, [sp, #24]
200019d4:	e58d900c 	str	r9, [sp, #12]
200019d8:	e58da004 	str	sl, [sp, #4]
200019dc:	e58dc010 	str	ip, [sp, #16]
200019e0:	ea000048 	b	20001b08 <LzmaDec_DecodeReal2+0xbf0>
200019e4:	e1a0c009 	mov	ip, r9
200019e8:	e59d502c 	ldr	r5, [sp, #44]	; 0x2c
200019ec:	e2846001 	add	r6, r4, #1
200019f0:	e3550000 	cmp	r5, #0
200019f4:	1a000002 	bne	20001a04 <LzmaDec_DecodeReal2+0xaec>
200019f8:	e59d8008 	ldr	r8, [sp, #8]
200019fc:	e1540008 	cmp	r4, r8
20001a00:	ea000001 	b	20001a0c <LzmaDec_DecodeReal2+0xaf4>
20001a04:	e59d902c 	ldr	r9, [sp, #44]	; 0x2c
20001a08:	e1540009 	cmp	r4, r9
20001a0c:	2a000069 	bcs	20001bb8 <LzmaDec_DecodeReal2+0xca0>
20001a10:	e3510012 	cmp	r1, #18
20001a14:	83a0100a 	movhi	r1, #10
20001a18:	93a01007 	movls	r1, #7
20001a1c:	ea000006 	b	20001a3c <LzmaDec_DecodeReal2+0xb24>
20001a20:	e59da004 	ldr	sl, [sp, #4]
20001a24:	e59d4010 	ldr	r4, [sp, #16]
20001a28:	e59d5024 	ldr	r5, [sp, #36]	; 0x24
20001a2c:	e59d600c 	ldr	r6, [sp, #12]
20001a30:	e58d4004 	str	r4, [sp, #4]
20001a34:	e58da00c 	str	sl, [sp, #12]
20001a38:	e58d5010 	str	r5, [sp, #16]
20001a3c:	e59d8028 	ldr	r8, [sp, #40]	; 0x28
20001a40:	e1580000 	cmp	r8, r0
20001a44:	0a00005b 	beq	20001bb8 <LzmaDec_DecodeReal2+0xca0>
20001a48:	e59d9014 	ldr	r9, [sp, #20]
20001a4c:	e060a008 	rsb	sl, r0, r8
20001a50:	e59d5020 	ldr	r5, [sp, #32]
20001a54:	e0668000 	rsb	r8, r6, r0
20001a58:	e2894002 	add	r4, r9, #2
20001a5c:	e59d9020 	ldr	r9, [sp, #32]
20001a60:	e154000a 	cmp	r4, sl
20001a64:	31a0a004 	movcc	sl, r4
20001a68:	e1500006 	cmp	r0, r6
20001a6c:	23a05000 	movcs	r5, #0
20001a70:	e06a4004 	rsb	r4, sl, r4
20001a74:	e0885005 	add	r5, r8, r5
20001a78:	e58d4018 	str	r4, [sp, #24]
20001a7c:	e085400a 	add	r4, r5, sl
20001a80:	e59d8008 	ldr	r8, [sp, #8]
20001a84:	e1540009 	cmp	r4, r9
20001a88:	e088800a 	add	r8, r8, sl
20001a8c:	e58d8008 	str	r8, [sp, #8]
20001a90:	8a000009 	bhi	20001abc <LzmaDec_DecodeReal2+0xba4>
20001a94:	e59d801c 	ldr	r8, [sp, #28]
20001a98:	e0605005 	rsb	r5, r0, r5
20001a9c:	e0884000 	add	r4, r8, r0
20001aa0:	e080000a 	add	r0, r0, sl
20001aa4:	e084800a 	add	r8, r4, sl
20001aa8:	e7d4a005 	ldrb	sl, [r4, r5]
20001aac:	e4c4a001 	strb	sl, [r4], #1
20001ab0:	e1540008 	cmp	r4, r8
20001ab4:	1afffffb 	bne	20001aa8 <LzmaDec_DecodeReal2+0xb90>
20001ab8:	ea00000c 	b	20001af0 <LzmaDec_DecodeReal2+0xbd8>
20001abc:	e59db01c 	ldr	fp, [sp, #28]
20001ac0:	e1a0800a 	mov	r8, sl
20001ac4:	e1a04000 	mov	r4, r0
20001ac8:	e7db9005 	ldrb	r9, [fp, r5]
20001acc:	e2855001 	add	r5, r5, #1
20001ad0:	e7cb9004 	strb	r9, [fp, r4]
20001ad4:	e2844001 	add	r4, r4, #1
20001ad8:	e59d9020 	ldr	r9, [sp, #32]
20001adc:	e1550009 	cmp	r5, r9
20001ae0:	03a05000 	moveq	r5, #0
20001ae4:	e2588001 	subs	r8, r8, #1
20001ae8:	1afffff6 	bne	20001ac8 <LzmaDec_DecodeReal2+0xbb0>
20001aec:	e080000a 	add	r0, r0, sl
20001af0:	e59da03c 	ldr	sl, [sp, #60]	; 0x3c
20001af4:	e59d4028 	ldr	r4, [sp, #40]	; 0x28
20001af8:	e152000a 	cmp	r2, sl
20001afc:	31500004 	cmpcc	r0, r4
20001b00:	3afffd3b 	bcc	20000ff4 <LzmaDec_DecodeReal2+0xdc>
20001b04:	e59d4034 	ldr	r4, [sp, #52]	; 0x34
20001b08:	e3570401 	cmp	r7, #16777216	; 0x1000000
20001b0c:	e59d5018 	ldr	r5, [sp, #24]
20001b10:	31a07407 	lslcc	r7, r7, #8
20001b14:	e59d800c 	ldr	r8, [sp, #12]
20001b18:	34d2c001 	ldrbcc	ip, [r2], #1
20001b1c:	e59d9004 	ldr	r9, [sp, #4]
20001b20:	318c3403 	orrcc	r3, ip, r3, lsl #8
20001b24:	e584701c 	str	r7, [r4, #28]
20001b28:	e5843020 	str	r3, [r4, #32]
20001b2c:	e59d7008 	ldr	r7, [sp, #8]
20001b30:	e594300c 	ldr	r3, [r4, #12]
20001b34:	e59da010 	ldr	sl, [sp, #16]
20001b38:	e1570003 	cmp	r7, r3
20001b3c:	e5840024 	str	r0, [r4, #36]	; 0x24
20001b40:	25843030 	strcs	r3, [r4, #48]	; 0x30
20001b44:	e1a00004 	mov	r0, r4
20001b48:	e5841034 	str	r1, [r4, #52]	; 0x34
20001b4c:	e5842018 	str	r2, [r4, #24]
20001b50:	e5845048 	str	r5, [r4, #72]	; 0x48
20001b54:	e584702c 	str	r7, [r4, #44]	; 0x2c
20001b58:	e5846038 	str	r6, [r4, #56]	; 0x38
20001b5c:	e584803c 	str	r8, [r4, #60]	; 0x3c
20001b60:	e5849040 	str	r9, [r4, #64]	; 0x40
20001b64:	e584a044 	str	sl, [r4, #68]	; 0x44
20001b68:	e59d1030 	ldr	r1, [sp, #48]	; 0x30
20001b6c:	ebfffcbf 	bl	20000e70 <LzmaDec_WriteRem>
20001b70:	e5943024 	ldr	r3, [r4, #36]	; 0x24
20001b74:	e59dc030 	ldr	ip, [sp, #48]	; 0x30
20001b78:	e153000c 	cmp	r3, ip
20001b7c:	2a000007 	bcs	20001ba0 <LzmaDec_DecodeReal2+0xc88>
20001b80:	e5943018 	ldr	r3, [r4, #24]
20001b84:	e59d003c 	ldr	r0, [sp, #60]	; 0x3c
20001b88:	e1530000 	cmp	r3, r0
20001b8c:	2a000003 	bcs	20001ba0 <LzmaDec_DecodeReal2+0xc88>
20001b90:	e5942048 	ldr	r2, [r4, #72]	; 0x48
20001b94:	e3003111 	movw	r3, #273	; 0x111
20001b98:	e1520003 	cmp	r2, r3
20001b9c:	9afffce2 	bls	20000f2c <LzmaDec_DecodeReal2+0x14>
20001ba0:	e5942048 	ldr	r2, [r4, #72]	; 0x48
20001ba4:	e3003112 	movw	r3, #274	; 0x112
20001ba8:	e3a00000 	mov	r0, #0
20001bac:	e1520003 	cmp	r2, r3
20001bb0:	85843048 	strhi	r3, [r4, #72]	; 0x48
20001bb4:	ea000000 	b	20001bbc <LzmaDec_DecodeReal2+0xca4>
20001bb8:	e3a00001 	mov	r0, #1
20001bbc:	e28dd04c 	add	sp, sp, #76	; 0x4c
20001bc0:	e8bd8ff0 	pop	{r4, r5, r6, r7, r8, r9, sl, fp, pc}

Disassembly of section .text.LzmaDec_TryDummy:

20001bc4 <LzmaDec_TryDummy>:
20001bc4:	e5903008 	ldr	r3, [r0, #8]
20001bc8:	e0812002 	add	r2, r1, r2
20001bcc:	e92d4ff0 	push	{r4, r5, r6, r7, r8, r9, sl, fp, lr}
20001bd0:	e3e07000 	mvn	r7, #0
20001bd4:	e590a034 	ldr	sl, [r0, #52]	; 0x34
20001bd8:	e590902c 	ldr	r9, [r0, #44]	; 0x2c
20001bdc:	e590601c 	ldr	r6, [r0, #28]
20001be0:	e1c97317 	bic	r7, r9, r7, lsl r3
20001be4:	e5904010 	ldr	r4, [r0, #16]
20001be8:	e087320a 	add	r3, r7, sl, lsl #4
20001bec:	e3560401 	cmp	r6, #16777216	; 0x1000000
20001bf0:	e5905020 	ldr	r5, [r0, #32]
20001bf4:	e1a03083 	lsl	r3, r3, #1
20001bf8:	e194c0b3 	ldrh	ip, [r4, r3]
20001bfc:	2a000004 	bcs	20001c14 <LzmaDec_TryDummy+0x50>
20001c00:	e1510002 	cmp	r1, r2
20001c04:	2a00014d 	bcs	20002140 <LzmaDec_TryDummy+0x57c>
20001c08:	e4d13001 	ldrb	r3, [r1], #1
20001c0c:	e1a06406 	lsl	r6, r6, #8
20001c10:	e1835405 	orr	r5, r3, r5, lsl #8
20001c14:	e1a035a6 	lsr	r3, r6, #11
20001c18:	e003039c 	mul	r3, ip, r3
20001c1c:	e1550003 	cmp	r5, r3
20001c20:	2a000052 	bcs	20001d70 <LzmaDec_TryDummy+0x1ac>
20001c24:	e590c030 	ldr	ip, [r0, #48]	; 0x30
20001c28:	e2844ee6 	add	r4, r4, #3680	; 0xe60
20001c2c:	e284400c 	add	r4, r4, #12
20001c30:	e35c0000 	cmp	ip, #0
20001c34:	1a000001 	bne	20001c40 <LzmaDec_TryDummy+0x7c>
20001c38:	e3590000 	cmp	r9, #0
20001c3c:	0a00000e 	beq	20001c7c <LzmaDec_TryDummy+0xb8>
20001c40:	e5906004 	ldr	r6, [r0, #4]
20001c44:	e3e07000 	mvn	r7, #0
20001c48:	e590c000 	ldr	ip, [r0]
20001c4c:	e1c99617 	bic	r9, r9, r7, lsl r6
20001c50:	e5906024 	ldr	r6, [r0, #36]	; 0x24
20001c54:	e5907014 	ldr	r7, [r0, #20]
20001c58:	e3560000 	cmp	r6, #0
20001c5c:	e1a09c19 	lsl	r9, r9, ip
20001c60:	e26cc008 	rsb	ip, ip, #8
20001c64:	05906028 	ldreq	r6, [r0, #40]	; 0x28
20001c68:	e2466001 	sub	r6, r6, #1
20001c6c:	e7d76006 	ldrb	r6, [r7, r6]
20001c70:	e089cc56 	add	ip, r9, r6, asr ip
20001c74:	e3a06c06 	mov	r6, #1536	; 0x600
20001c78:	e0244c96 	mla	r4, r6, ip, r4
20001c7c:	e35a0006 	cmp	sl, #6
20001c80:	8a000014 	bhi	20001cd8 <LzmaDec_TryDummy+0x114>
20001c84:	e3a00001 	mov	r0, #1
20001c88:	e1a0c080 	lsl	ip, r0, #1
20001c8c:	e3530401 	cmp	r3, #16777216	; 0x1000000
20001c90:	e19460bc 	ldrh	r6, [r4, ip]
20001c94:	2a000004 	bcs	20001cac <LzmaDec_TryDummy+0xe8>
20001c98:	e1510002 	cmp	r1, r2
20001c9c:	2a000127 	bcs	20002140 <LzmaDec_TryDummy+0x57c>
20001ca0:	e4d1c001 	ldrb	ip, [r1], #1
20001ca4:	e1a03403 	lsl	r3, r3, #8
20001ca8:	e18c5405 	orr	r5, ip, r5, lsl #8
20001cac:	e1a0c5a3 	lsr	ip, r3, #11
20001cb0:	e1a00080 	lsl	r0, r0, #1
20001cb4:	e00c0c96 	mul	ip, r6, ip
20001cb8:	e155000c 	cmp	r5, ip
20001cbc:	22800001 	addcs	r0, r0, #1
20001cc0:	31a0300c 	movcc	r3, ip
20001cc4:	206c3003 	rsbcs	r3, ip, r3
20001cc8:	206c5005 	rsbcs	r5, ip, r5
20001ccc:	e35000ff 	cmp	r0, #255	; 0xff
20001cd0:	9affffec 	bls	20001c88 <LzmaDec_TryDummy+0xc4>
20001cd4:	ea000023 	b	20001d68 <LzmaDec_TryDummy+0x1a4>
20001cd8:	e590c038 	ldr	ip, [r0, #56]	; 0x38
20001cdc:	e5906024 	ldr	r6, [r0, #36]	; 0x24
20001ce0:	e5908014 	ldr	r8, [r0, #20]
20001ce4:	e156000c 	cmp	r6, ip
20001ce8:	e06c7006 	rsb	r7, ip, r6
20001cec:	23a00000 	movcs	r0, #0
20001cf0:	e3a0c001 	mov	ip, #1
20001cf4:	35900028 	ldrcc	r0, [r0, #40]	; 0x28
20001cf8:	e0880000 	add	r0, r8, r0
20001cfc:	e7d07007 	ldrb	r7, [r0, r7]
20001d00:	e3a00c01 	mov	r0, #256	; 0x100
20001d04:	e1a07087 	lsl	r7, r7, #1
20001d08:	e080600c 	add	r6, r0, ip
20001d0c:	e0078000 	and	r8, r7, r0
20001d10:	e3530401 	cmp	r3, #16777216	; 0x1000000
20001d14:	e0866008 	add	r6, r6, r8
20001d18:	e1a06086 	lsl	r6, r6, #1
20001d1c:	e194a0b6 	ldrh	sl, [r4, r6]
20001d20:	2a000004 	bcs	20001d38 <LzmaDec_TryDummy+0x174>
20001d24:	e1510002 	cmp	r1, r2
20001d28:	2a000104 	bcs	20002140 <LzmaDec_TryDummy+0x57c>
20001d2c:	e4d16001 	ldrb	r6, [r1], #1
20001d30:	e1a03403 	lsl	r3, r3, #8
20001d34:	e1865405 	orr	r5, r6, r5, lsl #8
20001d38:	e1a065a3 	lsr	r6, r3, #11
20001d3c:	e1a0c08c 	lsl	ip, ip, #1
20001d40:	e006069a 	mul	r6, sl, r6
20001d44:	e1550006 	cmp	r5, r6
20001d48:	228cc001 	addcs	ip, ip, #1
20001d4c:	31c00008 	biccc	r0, r0, r8
20001d50:	31a03006 	movcc	r3, r6
20001d54:	20663003 	rsbcs	r3, r6, r3
20001d58:	20665005 	rsbcs	r5, r6, r5
20001d5c:	20000008 	andcs	r0, r0, r8
20001d60:	e35c00ff 	cmp	ip, #255	; 0xff
20001d64:	9affffe6 	bls	20001d04 <LzmaDec_TryDummy+0x140>
20001d68:	e3a00001 	mov	r0, #1
20001d6c:	ea0000ee 	b	2000212c <LzmaDec_TryDummy+0x568>
20001d70:	e0636006 	rsb	r6, r3, r6
20001d74:	e063c005 	rsb	ip, r3, r5
20001d78:	e28a30c0 	add	r3, sl, #192	; 0xc0
20001d7c:	e3560401 	cmp	r6, #16777216	; 0x1000000
20001d80:	e1a03083 	lsl	r3, r3, #1
20001d84:	e19450b3 	ldrh	r5, [r4, r3]
20001d88:	2a000004 	bcs	20001da0 <LzmaDec_TryDummy+0x1dc>
20001d8c:	e1510002 	cmp	r1, r2
20001d90:	2a0000ea 	bcs	20002140 <LzmaDec_TryDummy+0x57c>
20001d94:	e4d13001 	ldrb	r3, [r1], #1
20001d98:	e1a06406 	lsl	r6, r6, #8
20001d9c:	e183c40c 	orr	ip, r3, ip, lsl #8
20001da0:	e1a035a6 	lsr	r3, r6, #11
20001da4:	e0050395 	mul	r5, r5, r3
20001da8:	e15c0005 	cmp	ip, r5
20001dac:	32848e66 	addcc	r8, r4, #1632	; 0x660
20001db0:	33a00002 	movcc	r0, #2
20001db4:	32888004 	addcc	r8, r8, #4
20001db8:	33a0a000 	movcc	sl, #0
20001dbc:	3a00004d 	bcc	20001ef8 <LzmaDec_TryDummy+0x334>
20001dc0:	e28a30cc 	add	r3, sl, #204	; 0xcc
20001dc4:	e0656006 	rsb	r6, r5, r6
20001dc8:	e3560401 	cmp	r6, #16777216	; 0x1000000
20001dcc:	e065000c 	rsb	r0, r5, ip
20001dd0:	e1a03083 	lsl	r3, r3, #1
20001dd4:	e19450b3 	ldrh	r5, [r4, r3]
20001dd8:	2a000004 	bcs	20001df0 <LzmaDec_TryDummy+0x22c>
20001ddc:	e1510002 	cmp	r1, r2
20001de0:	2a0000d6 	bcs	20002140 <LzmaDec_TryDummy+0x57c>
20001de4:	e4d13001 	ldrb	r3, [r1], #1
20001de8:	e1a06406 	lsl	r6, r6, #8
20001dec:	e1830400 	orr	r0, r3, r0, lsl #8
20001df0:	e1a035a6 	lsr	r3, r6, #11
20001df4:	e0050395 	mul	r5, r5, r3
20001df8:	e1500005 	cmp	r0, r5
20001dfc:	2a000017 	bcs	20001e60 <LzmaDec_TryDummy+0x29c>
20001e00:	e28aa00f 	add	sl, sl, #15
20001e04:	e3550401 	cmp	r5, #16777216	; 0x1000000
20001e08:	e087a20a 	add	sl, r7, sl, lsl #4
20001e0c:	e1a0a08a 	lsl	sl, sl, #1
20001e10:	e19460ba 	ldrh	r6, [r4, sl]
20001e14:	2a000004 	bcs	20001e2c <LzmaDec_TryDummy+0x268>
20001e18:	e1510002 	cmp	r1, r2
20001e1c:	2a0000c7 	bcs	20002140 <LzmaDec_TryDummy+0x57c>
20001e20:	e4d13001 	ldrb	r3, [r1], #1
20001e24:	e1a05405 	lsl	r5, r5, #8
20001e28:	e1830400 	orr	r0, r3, r0, lsl #8
20001e2c:	e1a035a5 	lsr	r3, r5, #11
20001e30:	e0060396 	mul	r6, r6, r3
20001e34:	e1500006 	cmp	r0, r6
20001e38:	2a000005 	bcs	20001e54 <LzmaDec_TryDummy+0x290>
20001e3c:	e3560401 	cmp	r6, #16777216	; 0x1000000
20001e40:	23a00003 	movcs	r0, #3
20001e44:	28bd8ff0 	popcs	{r4, r5, r6, r7, r8, r9, sl, fp, pc}
20001e48:	e1510002 	cmp	r1, r2
20001e4c:	33a00003 	movcc	r0, #3
20001e50:	ea0000b8 	b	20002138 <LzmaDec_TryDummy+0x574>
20001e54:	e0665005 	rsb	r5, r6, r5
20001e58:	e066c000 	rsb	ip, r6, r0
20001e5c:	ea000021 	b	20001ee8 <LzmaDec_TryDummy+0x324>
20001e60:	e28a30d8 	add	r3, sl, #216	; 0xd8
20001e64:	e0656006 	rsb	r6, r5, r6
20001e68:	e3560401 	cmp	r6, #16777216	; 0x1000000
20001e6c:	e065c000 	rsb	ip, r5, r0
20001e70:	e1a03083 	lsl	r3, r3, #1
20001e74:	e19450b3 	ldrh	r5, [r4, r3]
20001e78:	2a000004 	bcs	20001e90 <LzmaDec_TryDummy+0x2cc>
20001e7c:	e1510002 	cmp	r1, r2
20001e80:	2a0000ae 	bcs	20002140 <LzmaDec_TryDummy+0x57c>
20001e84:	e4d13001 	ldrb	r3, [r1], #1
20001e88:	e1a06406 	lsl	r6, r6, #8
20001e8c:	e183c40c 	orr	ip, r3, ip, lsl #8
20001e90:	e1a035a6 	lsr	r3, r6, #11
20001e94:	e0050395 	mul	r5, r5, r3
20001e98:	e15c0005 	cmp	ip, r5
20001e9c:	3a000011 	bcc	20001ee8 <LzmaDec_TryDummy+0x324>
20001ea0:	e28aa0e4 	add	sl, sl, #228	; 0xe4
20001ea4:	e0656006 	rsb	r6, r5, r6
20001ea8:	e3560401 	cmp	r6, #16777216	; 0x1000000
20001eac:	e065c00c 	rsb	ip, r5, ip
20001eb0:	e1a0a08a 	lsl	sl, sl, #1
20001eb4:	e19400ba 	ldrh	r0, [r4, sl]
20001eb8:	2a000004 	bcs	20001ed0 <LzmaDec_TryDummy+0x30c>
20001ebc:	e1510002 	cmp	r1, r2
20001ec0:	2a00009e 	bcs	20002140 <LzmaDec_TryDummy+0x57c>
20001ec4:	e4d13001 	ldrb	r3, [r1], #1
20001ec8:	e1a06406 	lsl	r6, r6, #8
20001ecc:	e183c40c 	orr	ip, r3, ip, lsl #8
20001ed0:	e1a035a6 	lsr	r3, r6, #11
20001ed4:	e0030390 	mul	r3, r0, r3
20001ed8:	e15c0003 	cmp	ip, r3
20001edc:	20635006 	rsbcs	r5, r3, r6
20001ee0:	2063c00c 	rsbcs	ip, r3, ip
20001ee4:	31a05003 	movcc	r5, r3
20001ee8:	e2848ea6 	add	r8, r4, #2656	; 0xa60
20001eec:	e3a00003 	mov	r0, #3
20001ef0:	e2888008 	add	r8, r8, #8
20001ef4:	e3a0a00c 	mov	sl, #12
20001ef8:	e3550401 	cmp	r5, #16777216	; 0x1000000
20001efc:	e1d860b0 	ldrh	r6, [r8]
20001f00:	2a000004 	bcs	20001f18 <LzmaDec_TryDummy+0x354>
20001f04:	e1510002 	cmp	r1, r2
20001f08:	2a00008c 	bcs	20002140 <LzmaDec_TryDummy+0x57c>
20001f0c:	e4d13001 	ldrb	r3, [r1], #1
20001f10:	e1a05405 	lsl	r5, r5, #8
20001f14:	e183c40c 	orr	ip, r3, ip, lsl #8
20001f18:	e1a035a5 	lsr	r3, r5, #11
20001f1c:	e0030396 	mul	r3, r6, r3
20001f20:	e15c0003 	cmp	ip, r3
20001f24:	30888207 	addcc	r8, r8, r7, lsl #4
20001f28:	33a06008 	movcc	r6, #8
20001f2c:	32888004 	addcc	r8, r8, #4
20001f30:	33a07000 	movcc	r7, #0
20001f34:	3a000016 	bcc	20001f94 <LzmaDec_TryDummy+0x3d0>
20001f38:	e0635005 	rsb	r5, r3, r5
20001f3c:	e063c00c 	rsb	ip, r3, ip
20001f40:	e3550401 	cmp	r5, #16777216	; 0x1000000
20001f44:	e1d860b2 	ldrh	r6, [r8, #2]
20001f48:	2a000004 	bcs	20001f60 <LzmaDec_TryDummy+0x39c>
20001f4c:	e1510002 	cmp	r1, r2
20001f50:	2a00007a 	bcs	20002140 <LzmaDec_TryDummy+0x57c>
20001f54:	e4d13001 	ldrb	r3, [r1], #1
20001f58:	e1a05405 	lsl	r5, r5, #8
20001f5c:	e183c40c 	orr	ip, r3, ip, lsl #8
20001f60:	e1a035a5 	lsr	r3, r5, #11
20001f64:	e0060396 	mul	r6, r6, r3
20001f68:	e15c0006 	cmp	ip, r6
20001f6c:	30888207 	addcc	r8, r8, r7, lsl #4
20001f70:	33a07008 	movcc	r7, #8
20001f74:	31a03006 	movcc	r3, r6
20001f78:	20663005 	rsbcs	r3, r6, r5
20001f7c:	2066c00c 	rsbcs	ip, r6, ip
20001f80:	32888f41 	addcc	r8, r8, #260	; 0x104
20001f84:	31a06007 	movcc	r6, r7
20001f88:	22888f81 	addcs	r8, r8, #516	; 0x204
20001f8c:	23a07010 	movcs	r7, #16
20001f90:	23a06c01 	movcs	r6, #256	; 0x100
20001f94:	e3a05001 	mov	r5, #1
20001f98:	e1a09085 	lsl	r9, r5, #1
20001f9c:	e3530401 	cmp	r3, #16777216	; 0x1000000
20001fa0:	e198b0b9 	ldrh	fp, [r8, r9]
20001fa4:	2a000004 	bcs	20001fbc <LzmaDec_TryDummy+0x3f8>
20001fa8:	e1510002 	cmp	r1, r2
20001fac:	2a000063 	bcs	20002140 <LzmaDec_TryDummy+0x57c>
20001fb0:	e4d19001 	ldrb	r9, [r1], #1
20001fb4:	e1a03403 	lsl	r3, r3, #8
20001fb8:	e189c40c 	orr	ip, r9, ip, lsl #8
20001fbc:	e1a095a3 	lsr	r9, r3, #11
20001fc0:	e1a05085 	lsl	r5, r5, #1
20001fc4:	e009099b 	mul	r9, fp, r9
20001fc8:	e15c0009 	cmp	ip, r9
20001fcc:	22855001 	addcs	r5, r5, #1
20001fd0:	31a03009 	movcc	r3, r9
20001fd4:	20693003 	rsbcs	r3, r9, r3
20001fd8:	2069c00c 	rsbcs	ip, r9, ip
20001fdc:	e1550006 	cmp	r5, r6
20001fe0:	3affffec 	bcc	20001f98 <LzmaDec_TryDummy+0x3d4>
20001fe4:	e35a0003 	cmp	sl, #3
20001fe8:	8a00004f 	bhi	2000212c <LzmaDec_TryDummy+0x568>
20001fec:	e0666007 	rsb	r6, r6, r7
20001ff0:	e0865005 	add	r5, r6, r5
20001ff4:	e3a06001 	mov	r6, #1
20001ff8:	e3550003 	cmp	r5, #3
20001ffc:	91a05385 	lslls	r5, r5, #7
20002000:	83a05e4e 	movhi	r5, #1248	; 0x4e0
20002004:	92855e36 	addls	r5, r5, #864	; 0x360
20002008:	e0845005 	add	r5, r4, r5
2000200c:	e1a07086 	lsl	r7, r6, #1
20002010:	e3530401 	cmp	r3, #16777216	; 0x1000000
20002014:	e19580b7 	ldrh	r8, [r5, r7]
20002018:	2a000004 	bcs	20002030 <LzmaDec_TryDummy+0x46c>
2000201c:	e1510002 	cmp	r1, r2
20002020:	2a000046 	bcs	20002140 <LzmaDec_TryDummy+0x57c>
20002024:	e4d17001 	ldrb	r7, [r1], #1
20002028:	e1a03403 	lsl	r3, r3, #8
2000202c:	e187c40c 	orr	ip, r7, ip, lsl #8
20002030:	e1a075a3 	lsr	r7, r3, #11
20002034:	e1a06086 	lsl	r6, r6, #1
20002038:	e0070798 	mul	r7, r8, r7
2000203c:	e15c0007 	cmp	ip, r7
20002040:	22866001 	addcs	r6, r6, #1
20002044:	31a03007 	movcc	r3, r7
20002048:	20673003 	rsbcs	r3, r7, r3
2000204c:	2067c00c 	rsbcs	ip, r7, ip
20002050:	e356003f 	cmp	r6, #63	; 0x3f
20002054:	9affffec 	bls	2000200c <LzmaDec_TryDummy+0x448>
20002058:	e2466040 	sub	r6, r6, #64	; 0x40
2000205c:	e3560003 	cmp	r6, #3
20002060:	9a000031 	bls	2000212c <LzmaDec_TryDummy+0x568>
20002064:	e356000d 	cmp	r6, #13
20002068:	e1a070a6 	lsr	r7, r6, #1
2000206c:	e2475001 	sub	r5, r7, #1
20002070:	8a000006 	bhi	20002090 <LzmaDec_TryDummy+0x4cc>
20002074:	e2667fab 	rsb	r7, r6, #684	; 0x2ac
20002078:	e2066001 	and	r6, r6, #1
2000207c:	e3866002 	orr	r6, r6, #2
20002080:	e2877003 	add	r7, r7, #3
20002084:	e0876516 	add	r6, r7, r6, lsl r5
20002088:	e0844086 	add	r4, r4, r6, lsl #1
2000208c:	ea000012 	b	200020dc <LzmaDec_TryDummy+0x518>
20002090:	e2475005 	sub	r5, r7, #5
20002094:	e3530401 	cmp	r3, #16777216	; 0x1000000
20002098:	2a000004 	bcs	200020b0 <LzmaDec_TryDummy+0x4ec>
2000209c:	e1510002 	cmp	r1, r2
200020a0:	2a000026 	bcs	20002140 <LzmaDec_TryDummy+0x57c>
200020a4:	e4d16001 	ldrb	r6, [r1], #1
200020a8:	e1a03403 	lsl	r3, r3, #8
200020ac:	e186c40c 	orr	ip, r6, ip, lsl #8
200020b0:	e1a030a3 	lsr	r3, r3, #1
200020b4:	e2555001 	subs	r5, r5, #1
200020b8:	e063600c 	rsb	r6, r3, ip
200020bc:	e1a06fa6 	lsr	r6, r6, #31
200020c0:	e2466001 	sub	r6, r6, #1
200020c4:	e0066003 	and	r6, r6, r3
200020c8:	e066c00c 	rsb	ip, r6, ip
200020cc:	1afffff0 	bne	20002094 <LzmaDec_TryDummy+0x4d0>
200020d0:	e2844d19 	add	r4, r4, #1600	; 0x640
200020d4:	e3a05004 	mov	r5, #4
200020d8:	e2844004 	add	r4, r4, #4
200020dc:	e3a07001 	mov	r7, #1
200020e0:	e1a06087 	lsl	r6, r7, #1
200020e4:	e3530401 	cmp	r3, #16777216	; 0x1000000
200020e8:	e19480b6 	ldrh	r8, [r4, r6]
200020ec:	2a000004 	bcs	20002104 <LzmaDec_TryDummy+0x540>
200020f0:	e1510002 	cmp	r1, r2
200020f4:	2a000013 	bcs	20002148 <LzmaDec_TryDummy+0x584>
200020f8:	e4d16001 	ldrb	r6, [r1], #1
200020fc:	e1a03403 	lsl	r3, r3, #8
20002100:	e186c40c 	orr	ip, r6, ip, lsl #8
20002104:	e1a065a3 	lsr	r6, r3, #11
20002108:	e1a07087 	lsl	r7, r7, #1
2000210c:	e0080698 	mul	r8, r8, r6
20002110:	e15c0008 	cmp	ip, r8
20002114:	31a03008 	movcc	r3, r8
20002118:	20683003 	rsbcs	r3, r8, r3
2000211c:	2068c00c 	rsbcs	ip, r8, ip
20002120:	22877001 	addcs	r7, r7, #1
20002124:	e2555001 	subs	r5, r5, #1
20002128:	1affffec 	bne	200020e0 <LzmaDec_TryDummy+0x51c>
2000212c:	e3530401 	cmp	r3, #16777216	; 0x1000000
20002130:	28bd8ff0 	popcs	{r4, r5, r6, r7, r8, r9, sl, fp, pc}
20002134:	e1510002 	cmp	r1, r2
20002138:	23a00000 	movcs	r0, #0
2000213c:	e8bd8ff0 	pop	{r4, r5, r6, r7, r8, r9, sl, fp, pc}
20002140:	e3a00000 	mov	r0, #0
20002144:	e8bd8ff0 	pop	{r4, r5, r6, r7, r8, r9, sl, fp, pc}
20002148:	e3a00000 	mov	r0, #0
2000214c:	e8bd8ff0 	pop	{r4, r5, r6, r7, r8, r9, sl, fp, pc}

Disassembly of section .text.LzmaDec_InitDicAndState:

20002150 <LzmaDec_InitDicAndState>:
20002150:	e3a03000 	mov	r3, #0
20002154:	e3a0c001 	mov	ip, #1
20002158:	e1510003 	cmp	r1, r3
2000215c:	1580302c 	strne	r3, [r0, #44]	; 0x2c
20002160:	15803030 	strne	r3, [r0, #48]	; 0x30
20002164:	1580c050 	strne	ip, [r0, #80]	; 0x50
20002168:	e3520000 	cmp	r2, #0
2000216c:	e5803048 	str	r3, [r0, #72]	; 0x48
20002170:	e5803058 	str	r3, [r0, #88]	; 0x58
20002174:	13a03001 	movne	r3, #1
20002178:	e580c04c 	str	ip, [r0, #76]	; 0x4c
2000217c:	15803050 	strne	r3, [r0, #80]	; 0x50
20002180:	e12fff1e 	bx	lr

Disassembly of section .text.LzmaDec_Init:

20002184 <LzmaDec_Init>:
20002184:	e3a01001 	mov	r1, #1
20002188:	e3a02000 	mov	r2, #0
2000218c:	e5802024 	str	r2, [r0, #36]	; 0x24
20002190:	e1a02001 	mov	r2, r1
20002194:	eaffffed 	b	20002150 <LzmaDec_InitDicAndState>

Disassembly of section .text.LzmaDec_DecodeToDic:

20002198 <LzmaDec_DecodeToDic>:
20002198:	e92d4ff7 	push	{r0, r1, r2, r4, r5, r6, r7, r8, r9, sl, fp, lr}
2000219c:	e1a05002 	mov	r5, r2
200021a0:	e5dd2030 	ldrb	r2, [sp, #48]	; 0x30
200021a4:	e3a0a000 	mov	sl, #0
200021a8:	e59d8034 	ldr	r8, [sp, #52]	; 0x34
200021ac:	e1a04000 	mov	r4, r0
200021b0:	e58d1000 	str	r1, [sp]
200021b4:	e1a07003 	mov	r7, r3
200021b8:	e58d2004 	str	r2, [sp, #4]
200021bc:	e5936000 	ldr	r6, [r3]
200021c0:	e583a000 	str	sl, [r3]
200021c4:	ebfffb29 	bl	20000e70 <LzmaDec_WriteRem>
200021c8:	e5c8a000 	strb	sl, [r8]
200021cc:	ea0000bf 	b	200024d0 <LzmaDec_DecodeToDic+0x338>
200021d0:	e594304c 	ldr	r3, [r4, #76]	; 0x4c
200021d4:	e3530000 	cmp	r3, #0
200021d8:	0a000023 	beq	2000226c <LzmaDec_DecodeToDic+0xd4>
200021dc:	ea000008 	b	20002204 <LzmaDec_DecodeToDic+0x6c>
200021e0:	e4d51001 	ldrb	r1, [r5], #1
200021e4:	e0842003 	add	r2, r4, r3
200021e8:	e2466001 	sub	r6, r6, #1
200021ec:	e2833001 	add	r3, r3, #1
200021f0:	e5843058 	str	r3, [r4, #88]	; 0x58
200021f4:	e5c2105c 	strb	r1, [r2, #92]	; 0x5c
200021f8:	e5973000 	ldr	r3, [r7]
200021fc:	e2833001 	add	r3, r3, #1
20002200:	e5873000 	str	r3, [r7]
20002204:	e3560000 	cmp	r6, #0
20002208:	e5943058 	ldr	r3, [r4, #88]	; 0x58
2000220c:	0a000001 	beq	20002218 <LzmaDec_DecodeToDic+0x80>
20002210:	e3530004 	cmp	r3, #4
20002214:	9afffff1 	bls	200021e0 <LzmaDec_DecodeToDic+0x48>
20002218:	e3530004 	cmp	r3, #4
2000221c:	93a03003 	movls	r3, #3
20002220:	93a00000 	movls	r0, #0
20002224:	95c83000 	strbls	r3, [r8]
20002228:	9a0000b5 	bls	20002504 <LzmaDec_DecodeToDic+0x36c>
2000222c:	e5d4305c 	ldrb	r3, [r4, #92]	; 0x5c
20002230:	e3530000 	cmp	r3, #0
20002234:	1a0000b1 	bne	20002500 <LzmaDec_DecodeToDic+0x368>
20002238:	e5d4205e 	ldrb	r2, [r4, #94]	; 0x5e
2000223c:	e5d4105d 	ldrb	r1, [r4, #93]	; 0x5d
20002240:	e584304c 	str	r3, [r4, #76]	; 0x4c
20002244:	e1a02802 	lsl	r2, r2, #16
20002248:	e5843058 	str	r3, [r4, #88]	; 0x58
2000224c:	e1822c01 	orr	r2, r2, r1, lsl #24
20002250:	e5d41060 	ldrb	r1, [r4, #96]	; 0x60
20002254:	e1822001 	orr	r2, r2, r1
20002258:	e5d4105f 	ldrb	r1, [r4, #95]	; 0x5f
2000225c:	e1822401 	orr	r2, r2, r1, lsl #8
20002260:	e5842020 	str	r2, [r4, #32]
20002264:	e3e02000 	mvn	r2, #0
20002268:	e584201c 	str	r2, [r4, #28]
2000226c:	e5943024 	ldr	r3, [r4, #36]	; 0x24
20002270:	e59d0000 	ldr	r0, [sp]
20002274:	e1530000 	cmp	r3, r0
20002278:	3a00000f 	bcc	200022bc <LzmaDec_DecodeToDic+0x124>
2000227c:	e5943048 	ldr	r3, [r4, #72]	; 0x48
20002280:	e3530000 	cmp	r3, #0
20002284:	1a000003 	bne	20002298 <LzmaDec_DecodeToDic+0x100>
20002288:	e5940020 	ldr	r0, [r4, #32]
2000228c:	e3500000 	cmp	r0, #0
20002290:	02833004 	addeq	r3, r3, #4
20002294:	0a000071 	beq	20002460 <LzmaDec_DecodeToDic+0x2c8>
20002298:	e59d2004 	ldr	r2, [sp, #4]
2000229c:	e3520000 	cmp	r2, #0
200022a0:	03a03002 	moveq	r3, #2
200022a4:	01a00002 	moveq	r0, r2
200022a8:	05c83000 	strbeq	r3, [r8]
200022ac:	0a000094 	beq	20002504 <LzmaDec_DecodeToDic+0x36c>
200022b0:	e3530000 	cmp	r3, #0
200022b4:	0a000002 	beq	200022c4 <LzmaDec_DecodeToDic+0x12c>
200022b8:	ea00006f 	b	2000247c <LzmaDec_DecodeToDic+0x2e4>
200022bc:	e3a0b000 	mov	fp, #0
200022c0:	ea000000 	b	200022c8 <LzmaDec_DecodeToDic+0x130>
200022c4:	e3a0b001 	mov	fp, #1
200022c8:	e5943050 	ldr	r3, [r4, #80]	; 0x50
200022cc:	e3530000 	cmp	r3, #0
200022d0:	0a000015 	beq	2000232c <LzmaDec_DecodeToDic+0x194>
200022d4:	e8940009 	ldm	r4, {r0, r3}
200022d8:	e0833000 	add	r3, r3, r0
200022dc:	e3a01c03 	mov	r1, #768	; 0x300
200022e0:	e5942010 	ldr	r2, [r4, #16]
200022e4:	e1a01311 	lsl	r1, r1, r3
200022e8:	e3a03000 	mov	r3, #0
200022ec:	e2811e73 	add	r1, r1, #1840	; 0x730
200022f0:	e2811006 	add	r1, r1, #6
200022f4:	ea000002 	b	20002304 <LzmaDec_DecodeToDic+0x16c>
200022f8:	e2833001 	add	r3, r3, #1
200022fc:	e3a00b01 	mov	r0, #1024	; 0x400
20002300:	e0c200b2 	strh	r0, [r2], #2
20002304:	e1530001 	cmp	r3, r1
20002308:	3afffffa 	bcc	200022f8 <LzmaDec_DecodeToDic+0x160>
2000230c:	e3a03001 	mov	r3, #1
20002310:	e5843044 	str	r3, [r4, #68]	; 0x44
20002314:	e5843040 	str	r3, [r4, #64]	; 0x40
20002318:	e584303c 	str	r3, [r4, #60]	; 0x3c
2000231c:	e5843038 	str	r3, [r4, #56]	; 0x38
20002320:	e3a03000 	mov	r3, #0
20002324:	e5843034 	str	r3, [r4, #52]	; 0x34
20002328:	e5843050 	str	r3, [r4, #80]	; 0x50
2000232c:	e594a058 	ldr	sl, [r4, #88]	; 0x58
20002330:	e35a0000 	cmp	sl, #0
20002334:	13a09000 	movne	r9, #0
20002338:	1a000034 	bne	20002410 <LzmaDec_DecodeToDic+0x278>
2000233c:	e6efa07b 	uxtb	sl, fp
20002340:	e3560013 	cmp	r6, #19
20002344:	81a0300a 	movhi	r3, sl
20002348:	938a3001 	orrls	r3, sl, #1
2000234c:	e3530000 	cmp	r3, #0
20002350:	0a000017 	beq	200023b4 <LzmaDec_DecodeToDic+0x21c>
20002354:	e1a00004 	mov	r0, r4
20002358:	e1a01005 	mov	r1, r5
2000235c:	e1a02006 	mov	r2, r6
20002360:	ebfffe17 	bl	20001bc4 <LzmaDec_TryDummy>
20002364:	e2509000 	subs	r9, r0, #0
20002368:	1a00000b 	bne	2000239c <LzmaDec_DecodeToDic+0x204>
2000236c:	e1a02006 	mov	r2, r6
20002370:	e284005c 	add	r0, r4, #92	; 0x5c
20002374:	e1a01005 	mov	r1, r5
20002378:	eb00015a 	bl	200028e8 <memcpy>
2000237c:	e5846058 	str	r6, [r4, #88]	; 0x58
20002380:	e5973000 	ldr	r3, [r7]
20002384:	e1a00009 	mov	r0, r9
20002388:	e0836006 	add	r6, r3, r6
2000238c:	e3a03003 	mov	r3, #3
20002390:	e5876000 	str	r6, [r7]
20002394:	e5c83000 	strb	r3, [r8]
20002398:	ea000059 	b	20002504 <LzmaDec_DecodeToDic+0x36c>
2000239c:	e3590002 	cmp	r9, #2
200023a0:	03a0a000 	moveq	sl, #0
200023a4:	120aa001 	andne	sl, sl, #1
200023a8:	e35a0000 	cmp	sl, #0
200023ac:	0a000003 	beq	200023c0 <LzmaDec_DecodeToDic+0x228>
200023b0:	ea000031 	b	2000247c <LzmaDec_DecodeToDic+0x2e4>
200023b4:	e2462014 	sub	r2, r6, #20
200023b8:	e0852002 	add	r2, r5, r2
200023bc:	ea000000 	b	200023c4 <LzmaDec_DecodeToDic+0x22c>
200023c0:	e1a02005 	mov	r2, r5
200023c4:	e5845018 	str	r5, [r4, #24]
200023c8:	e1a00004 	mov	r0, r4
200023cc:	e59d1000 	ldr	r1, [sp]
200023d0:	ebfffad0 	bl	20000f18 <LzmaDec_DecodeReal2>
200023d4:	e3500000 	cmp	r0, #0
200023d8:	1a000048 	bne	20002500 <LzmaDec_DecodeToDic+0x368>
200023dc:	e5943018 	ldr	r3, [r4, #24]
200023e0:	e5972000 	ldr	r2, [r7]
200023e4:	e0653003 	rsb	r3, r5, r3
200023e8:	e0822003 	add	r2, r2, r3
200023ec:	e0855003 	add	r5, r5, r3
200023f0:	e5872000 	str	r2, [r7]
200023f4:	e0636006 	rsb	r6, r3, r6
200023f8:	ea000034 	b	200024d0 <LzmaDec_DecodeToDic+0x338>
200023fc:	e7d52009 	ldrb	r2, [r5, r9]
20002400:	e084300a 	add	r3, r4, sl
20002404:	e2899001 	add	r9, r9, #1
20002408:	e28aa001 	add	sl, sl, #1
2000240c:	e5c3205c 	strb	r2, [r3, #92]	; 0x5c
20002410:	e35a0013 	cmp	sl, #19
20002414:	83a03000 	movhi	r3, #0
20002418:	93a03001 	movls	r3, #1
2000241c:	e35a0013 	cmp	sl, #19
20002420:	91590006 	cmpls	r9, r6
20002424:	3afffff4 	bcc	200023fc <LzmaDec_DecodeToDic+0x264>
20002428:	e6efb07b 	uxtb	fp, fp
2000242c:	e584a058 	str	sl, [r4, #88]	; 0x58
20002430:	e193300b 	orrs	r3, r3, fp
20002434:	0a000013 	beq	20002488 <LzmaDec_DecodeToDic+0x2f0>
20002438:	e1a00004 	mov	r0, r4
2000243c:	e284105c 	add	r1, r4, #92	; 0x5c
20002440:	e1a0200a 	mov	r2, sl
20002444:	ebfffdde 	bl	20001bc4 <LzmaDec_TryDummy>
20002448:	e3500000 	cmp	r0, #0
2000244c:	1a000005 	bne	20002468 <LzmaDec_DecodeToDic+0x2d0>
20002450:	e5973000 	ldr	r3, [r7]
20002454:	e0839009 	add	r9, r3, r9
20002458:	e3a03003 	mov	r3, #3
2000245c:	e5879000 	str	r9, [r7]
20002460:	e5c83000 	strb	r3, [r8]
20002464:	ea000026 	b	20002504 <LzmaDec_DecodeToDic+0x36c>
20002468:	e3500002 	cmp	r0, #2
2000246c:	03a00000 	moveq	r0, #0
20002470:	120b0001 	andne	r0, fp, #1
20002474:	e3500000 	cmp	r0, #0
20002478:	0a000002 	beq	20002488 <LzmaDec_DecodeToDic+0x2f0>
2000247c:	e3a03002 	mov	r3, #2
20002480:	e5c83000 	strb	r3, [r8]
20002484:	ea00001d 	b	20002500 <LzmaDec_DecodeToDic+0x368>
20002488:	e284b05c 	add	fp, r4, #92	; 0x5c
2000248c:	e1a00004 	mov	r0, r4
20002490:	e584b018 	str	fp, [r4, #24]
20002494:	e1a0200b 	mov	r2, fp
20002498:	e59d1000 	ldr	r1, [sp]
2000249c:	ebfffa9d 	bl	20000f18 <LzmaDec_DecodeReal2>
200024a0:	e3500000 	cmp	r0, #0
200024a4:	1a000015 	bne	20002500 <LzmaDec_DecodeToDic+0x368>
200024a8:	e5943018 	ldr	r3, [r4, #24]
200024ac:	e063b00b 	rsb	fp, r3, fp
200024b0:	e5973000 	ldr	r3, [r7]
200024b4:	e06b9009 	rsb	r9, fp, r9
200024b8:	e06aa009 	rsb	sl, sl, r9
200024bc:	e085500a 	add	r5, r5, sl
200024c0:	e06a6006 	rsb	r6, sl, r6
200024c4:	e083300a 	add	r3, r3, sl
200024c8:	e5873000 	str	r3, [r7]
200024cc:	e5840058 	str	r0, [r4, #88]	; 0x58
200024d0:	e5942048 	ldr	r2, [r4, #72]	; 0x48
200024d4:	e3003112 	movw	r3, #274	; 0x112
200024d8:	e1520003 	cmp	r2, r3
200024dc:	1affff3b 	bne	200021d0 <LzmaDec_DecodeToDic+0x38>
200024e0:	e5940020 	ldr	r0, [r4, #32]
200024e4:	e3500000 	cmp	r0, #0
200024e8:	03a03001 	moveq	r3, #1
200024ec:	15d83000 	ldrbne	r3, [r8]
200024f0:	e2500000 	subs	r0, r0, #0
200024f4:	13a00001 	movne	r0, #1
200024f8:	e5c83000 	strb	r3, [r8]
200024fc:	ea000000 	b	20002504 <LzmaDec_DecodeToDic+0x36c>
20002500:	e3a00001 	mov	r0, #1
20002504:	e8bd8ffe 	pop	{r1, r2, r3, r4, r5, r6, r7, r8, r9, sl, fp, pc}

Disassembly of section .text.LzmaDec_FreeProbs:

20002508 <LzmaDec_FreeProbs>:
20002508:	e92d4010 	push	{r4, lr}
2000250c:	e1a04000 	mov	r4, r0
20002510:	e5913004 	ldr	r3, [r1, #4]
20002514:	e1a00001 	mov	r0, r1
20002518:	e5941010 	ldr	r1, [r4, #16]
2000251c:	e12fff33 	blx	r3
20002520:	e3a03000 	mov	r3, #0
20002524:	e5843010 	str	r3, [r4, #16]
20002528:	e8bd8010 	pop	{r4, pc}

Disassembly of section .text.LzmaProps_Decode:

2000252c <LzmaProps_Decode>:
2000252c:	e3520004 	cmp	r2, #4
20002530:	e92d4038 	push	{r3, r4, r5, lr}
20002534:	e1a04000 	mov	r4, r0
20002538:	93a00004 	movls	r0, #4
2000253c:	98bd8038 	popls	{r3, r4, r5, pc}
20002540:	e5d13003 	ldrb	r3, [r1, #3]
20002544:	e5d12002 	ldrb	r2, [r1, #2]
20002548:	e1a03803 	lsl	r3, r3, #16
2000254c:	e1833402 	orr	r3, r3, r2, lsl #8
20002550:	e5d12001 	ldrb	r2, [r1, #1]
20002554:	e1833002 	orr	r3, r3, r2
20002558:	e5d12004 	ldrb	r2, [r1, #4]
2000255c:	e1833c02 	orr	r3, r3, r2, lsl #24
20002560:	e3530a01 	cmp	r3, #4096	; 0x1000
20002564:	33a03a01 	movcc	r3, #4096	; 0x1000
20002568:	e580300c 	str	r3, [r0, #12]
2000256c:	e5d15000 	ldrb	r5, [r1]
20002570:	e35500e0 	cmp	r5, #224	; 0xe0
20002574:	8a000014 	bhi	200025cc <LzmaProps_Decode+0xa0>
20002578:	e1a00005 	mov	r0, r5
2000257c:	e3a01009 	mov	r1, #9
20002580:	eb000ae9 	bl	2000512c <__aeabi_uidivmod>
20002584:	e1a00005 	mov	r0, r5
20002588:	e6ef1071 	uxtb	r1, r1
2000258c:	e5841000 	str	r1, [r4]
20002590:	e3a01009 	mov	r1, #9
20002594:	eb000ae3 	bl	20005128 <__aeabi_uidiv>
20002598:	e3a01005 	mov	r1, #5
2000259c:	e6ef5070 	uxtb	r5, r0
200025a0:	e1a00005 	mov	r0, r5
200025a4:	eb000adf 	bl	20005128 <__aeabi_uidiv>
200025a8:	e3a01005 	mov	r1, #5
200025ac:	e6ef0070 	uxtb	r0, r0
200025b0:	e5840008 	str	r0, [r4, #8]
200025b4:	e1a00005 	mov	r0, r5
200025b8:	eb000adb 	bl	2000512c <__aeabi_uidivmod>
200025bc:	e3a00000 	mov	r0, #0
200025c0:	e6ef1071 	uxtb	r1, r1
200025c4:	e5841004 	str	r1, [r4, #4]
200025c8:	e8bd8038 	pop	{r3, r4, r5, pc}
200025cc:	e3a00004 	mov	r0, #4
200025d0:	e8bd8038 	pop	{r3, r4, r5, pc}

Disassembly of section .text.LzmaDec_AllocateProbs:

200025d4 <LzmaDec_AllocateProbs>:
200025d4:	e92d40f0 	push	{r4, r5, r6, r7, lr}
200025d8:	e24dd014 	sub	sp, sp, #20
200025dc:	e1a04000 	mov	r4, r0
200025e0:	e1a0000d 	mov	r0, sp
200025e4:	e1a06003 	mov	r6, r3
200025e8:	ebffffcf 	bl	2000252c <LzmaProps_Decode>
200025ec:	e2505000 	subs	r5, r0, #0
200025f0:	1a000017 	bne	20002654 <LzmaDec_AllocateProbs+0x80>
200025f4:	e89d0088 	ldm	sp, {r3, r7}
200025f8:	e0877003 	add	r7, r7, r3
200025fc:	e3a03c03 	mov	r3, #768	; 0x300
20002600:	e1a07713 	lsl	r7, r3, r7
20002604:	e5943010 	ldr	r3, [r4, #16]
20002608:	e2877e73 	add	r7, r7, #1840	; 0x730
2000260c:	e3530000 	cmp	r3, #0
20002610:	e2877006 	add	r7, r7, #6
20002614:	0a000002 	beq	20002624 <LzmaDec_AllocateProbs+0x50>
20002618:	e5943054 	ldr	r3, [r4, #84]	; 0x54
2000261c:	e1570003 	cmp	r7, r3
20002620:	0a00000e 	beq	20002660 <LzmaDec_AllocateProbs+0x8c>
20002624:	e1a00004 	mov	r0, r4
20002628:	e1a01006 	mov	r1, r6
2000262c:	ebffffb5 	bl	20002508 <LzmaDec_FreeProbs>
20002630:	e5963000 	ldr	r3, [r6]
20002634:	e1a00006 	mov	r0, r6
20002638:	e1a01087 	lsl	r1, r7, #1
2000263c:	e12fff33 	blx	r3
20002640:	e5847054 	str	r7, [r4, #84]	; 0x54
20002644:	e3500000 	cmp	r0, #0
20002648:	e5840010 	str	r0, [r4, #16]
2000264c:	1a000003 	bne	20002660 <LzmaDec_AllocateProbs+0x8c>
20002650:	e3a05002 	mov	r5, #2
20002654:	e1a00005 	mov	r0, r5
20002658:	e28dd014 	add	sp, sp, #20
2000265c:	e8bd80f0 	pop	{r4, r5, r6, r7, pc}
20002660:	e1a0300d 	mov	r3, sp
20002664:	e893000f 	ldm	r3, {r0, r1, r2, r3}
20002668:	e884000f 	stm	r4, {r0, r1, r2, r3}
2000266c:	eafffff8 	b	20002654 <LzmaDec_AllocateProbs+0x80>

Disassembly of section .text.LzmaDecode:

20002670 <LzmaDecode>:
20002670:	e92d4ff0 	push	{r4, r5, r6, r7, r8, r9, sl, fp, lr}
20002674:	e1a04003 	mov	r4, r3
20002678:	e5937000 	ldr	r7, [r3]
2000267c:	e24dd07c 	sub	sp, sp, #124	; 0x7c
20002680:	e5916000 	ldr	r6, [r1]
20002684:	e3a03000 	mov	r3, #0
20002688:	e3570004 	cmp	r7, #4
2000268c:	e5dda0a8 	ldrb	sl, [sp, #168]	; 0xa8
20002690:	e1a08000 	mov	r8, r0
20002694:	e5813000 	str	r3, [r1]
20002698:	e1a05001 	mov	r5, r1
2000269c:	e1a09002 	mov	r9, r2
200026a0:	e5843000 	str	r3, [r4]
200026a4:	93a0b006 	movls	fp, #6
200026a8:	9a000021 	bls	20002734 <LzmaDecode+0xc4>
200026ac:	e58d301c 	str	r3, [sp, #28]
200026b0:	e28d0008 	add	r0, sp, #8
200026b4:	e58d3018 	str	r3, [sp, #24]
200026b8:	e59d10a0 	ldr	r1, [sp, #160]	; 0xa0
200026bc:	e59d20a4 	ldr	r2, [sp, #164]	; 0xa4
200026c0:	e59d30b0 	ldr	r3, [sp, #176]	; 0xb0
200026c4:	ebffffc2 	bl	200025d4 <LzmaDec_AllocateProbs>
200026c8:	e250b000 	subs	fp, r0, #0
200026cc:	1a000018 	bne	20002734 <LzmaDecode+0xc4>
200026d0:	e28d0008 	add	r0, sp, #8
200026d4:	e58d801c 	str	r8, [sp, #28]
200026d8:	e58d6030 	str	r6, [sp, #48]	; 0x30
200026dc:	ebfffea8 	bl	20002184 <LzmaDec_Init>
200026e0:	e59d30ac 	ldr	r3, [sp, #172]	; 0xac
200026e4:	e28d0008 	add	r0, sp, #8
200026e8:	e5847000 	str	r7, [r4]
200026ec:	e1a01006 	mov	r1, r6
200026f0:	e1a02009 	mov	r2, r9
200026f4:	e58da000 	str	sl, [sp]
200026f8:	e58d3004 	str	r3, [sp, #4]
200026fc:	e1a03004 	mov	r3, r4
20002700:	ebfffea4 	bl	20002198 <LzmaDec_DecodeToDic>
20002704:	e250b000 	subs	fp, r0, #0
20002708:	1a000004 	bne	20002720 <LzmaDecode+0xb0>
2000270c:	e59d30ac 	ldr	r3, [sp, #172]	; 0xac
20002710:	e5d3b000 	ldrb	fp, [r3]
20002714:	e35b0003 	cmp	fp, #3
20002718:	03a0b006 	moveq	fp, #6
2000271c:	13a0b000 	movne	fp, #0
20002720:	e59d302c 	ldr	r3, [sp, #44]	; 0x2c
20002724:	e28d0008 	add	r0, sp, #8
20002728:	e59d10b0 	ldr	r1, [sp, #176]	; 0xb0
2000272c:	e5853000 	str	r3, [r5]
20002730:	ebffff74 	bl	20002508 <LzmaDec_FreeProbs>
20002734:	e1a0000b 	mov	r0, fp
20002738:	e28dd07c 	add	sp, sp, #124	; 0x7c
2000273c:	e8bd8ff0 	pop	{r4, r5, r6, r7, r8, r9, sl, fp, pc}

Disassembly of section .text.falloc:

20002740 <falloc>:
20002740:	e59f3014 	ldr	r3, [pc, #20]	; 2000275c <falloc+0x1c>
20002744:	e5930000 	ldr	r0, [r3]
20002748:	e0611000 	rsb	r1, r1, r0
2000274c:	e59f000c 	ldr	r0, [pc, #12]	; 20002760 <falloc+0x20>
20002750:	e5831000 	str	r1, [r3]
20002754:	e0800181 	add	r0, r0, r1, lsl #3
20002758:	e12fff1e 	bx	lr
2000275c:	200055a8 	.word	0x200055a8
20002760:	20005ed8 	.word	0x20005ed8

Disassembly of section .text.ffree:

20002764 <ffree>:
20002764:	e12fff1e 	bx	lr

Disassembly of section .text.adler32:

20002768 <adler32>:
20002768:	e92d40f8 	push	{r3, r4, r5, r6, r7, lr}
2000276c:	e2516000 	subs	r6, r1, #0
20002770:	e1a07002 	mov	r7, r2
20002774:	16ff4070 	uxthne	r4, r0
20002778:	11a05820 	lsrne	r5, r0, #16
2000277c:	1a00004d 	bne	200028b8 <adler32+0x150>
20002780:	ea000050 	b	200028c8 <adler32+0x160>
20002784:	e30125b0 	movw	r2, #5552	; 0x15b0
20002788:	e1a03006 	mov	r3, r6
2000278c:	e1570002 	cmp	r7, r2
20002790:	31a02007 	movcc	r2, r7
20002794:	e0627007 	rsb	r7, r2, r7
20002798:	ea000030 	b	20002860 <adler32+0xf8>
2000279c:	e5531010 	ldrb	r1, [r3, #-16]
200027a0:	e2422010 	sub	r2, r2, #16
200027a4:	e0844001 	add	r4, r4, r1
200027a8:	e553100f 	ldrb	r1, [r3, #-15]
200027ac:	e0845005 	add	r5, r4, r5
200027b0:	e0844001 	add	r4, r4, r1
200027b4:	e553100e 	ldrb	r1, [r3, #-14]
200027b8:	e0855004 	add	r5, r5, r4
200027bc:	e0844001 	add	r4, r4, r1
200027c0:	e553100d 	ldrb	r1, [r3, #-13]
200027c4:	e0855004 	add	r5, r5, r4
200027c8:	e0844001 	add	r4, r4, r1
200027cc:	e553100c 	ldrb	r1, [r3, #-12]
200027d0:	e0855004 	add	r5, r5, r4
200027d4:	e0844001 	add	r4, r4, r1
200027d8:	e553100b 	ldrb	r1, [r3, #-11]
200027dc:	e0855004 	add	r5, r5, r4
200027e0:	e0844001 	add	r4, r4, r1
200027e4:	e553100a 	ldrb	r1, [r3, #-10]
200027e8:	e0855004 	add	r5, r5, r4
200027ec:	e0844001 	add	r4, r4, r1
200027f0:	e5531009 	ldrb	r1, [r3, #-9]
200027f4:	e0855004 	add	r5, r5, r4
200027f8:	e0844001 	add	r4, r4, r1
200027fc:	e5531008 	ldrb	r1, [r3, #-8]
20002800:	e0855004 	add	r5, r5, r4
20002804:	e0844001 	add	r4, r4, r1
20002808:	e5531007 	ldrb	r1, [r3, #-7]
2000280c:	e0855004 	add	r5, r5, r4
20002810:	e0844001 	add	r4, r4, r1
20002814:	e5531006 	ldrb	r1, [r3, #-6]
20002818:	e0855004 	add	r5, r5, r4
2000281c:	e0844001 	add	r4, r4, r1
20002820:	e5531005 	ldrb	r1, [r3, #-5]
20002824:	e0855004 	add	r5, r5, r4
20002828:	e0844001 	add	r4, r4, r1
2000282c:	e5531004 	ldrb	r1, [r3, #-4]
20002830:	e0855004 	add	r5, r5, r4
20002834:	e0844001 	add	r4, r4, r1
20002838:	e5531003 	ldrb	r1, [r3, #-3]
2000283c:	e0855004 	add	r5, r5, r4
20002840:	e0844001 	add	r4, r4, r1
20002844:	e5531002 	ldrb	r1, [r3, #-2]
20002848:	e0855004 	add	r5, r5, r4
2000284c:	e0844001 	add	r4, r4, r1
20002850:	e5531001 	ldrb	r1, [r3, #-1]
20002854:	e0855004 	add	r5, r5, r4
20002858:	e0844001 	add	r4, r4, r1
2000285c:	e0855004 	add	r5, r5, r4
20002860:	e352000f 	cmp	r2, #15
20002864:	e1a06003 	mov	r6, r3
20002868:	e2833010 	add	r3, r3, #16
2000286c:	caffffca 	bgt	2000279c <adler32+0x34>
20002870:	e3520000 	cmp	r2, #0
20002874:	e1a03002 	mov	r3, r2
20002878:	e1a01006 	mov	r1, r6
2000287c:	0a000005 	beq	20002898 <adler32+0x130>
20002880:	e4d60001 	ldrb	r0, [r6], #1
20002884:	e2522001 	subs	r2, r2, #1
20002888:	e0844000 	add	r4, r4, r0
2000288c:	e0855004 	add	r5, r5, r4
20002890:	1afffffa 	bne	20002880 <adler32+0x118>
20002894:	e0816003 	add	r6, r1, r3
20002898:	e1a00004 	mov	r0, r4
2000289c:	e30f1ff1 	movw	r1, #65521	; 0xfff1
200028a0:	eb000a21 	bl	2000512c <__aeabi_uidivmod>
200028a4:	e1a00005 	mov	r0, r5
200028a8:	e1a04001 	mov	r4, r1
200028ac:	e30f1ff1 	movw	r1, #65521	; 0xfff1
200028b0:	eb000a1d 	bl	2000512c <__aeabi_uidivmod>
200028b4:	e1a05001 	mov	r5, r1
200028b8:	e3570000 	cmp	r7, #0
200028bc:	1affffb0 	bne	20002784 <adler32+0x1c>
200028c0:	e1840805 	orr	r0, r4, r5, lsl #16
200028c4:	e8bd80f8 	pop	{r3, r4, r5, r6, r7, pc}
200028c8:	e3a00001 	mov	r0, #1
200028cc:	e8bd80f8 	pop	{r3, r4, r5, r6, r7, pc}

Disassembly of section .text._memset:

200028d0 <_memset>:
200028d0:	e1a03000 	mov	r3, r0
200028d4:	ea000000 	b	200028dc <_memset+0xc>
200028d8:	e4c31001 	strb	r1, [r3], #1
200028dc:	e2522001 	subs	r2, r2, #1
200028e0:	2afffffc 	bcs	200028d8 <_memset+0x8>
200028e4:	e12fff1e 	bx	lr

Disassembly of section .text.memcpy:

200028e8 <memcpy>:
200028e8:	e1a03000 	mov	r3, r0
200028ec:	ea000002 	b	200028fc <memcpy+0x14>
200028f0:	e4d1c001 	ldrb	ip, [r1], #1
200028f4:	e2422001 	sub	r2, r2, #1
200028f8:	e4c3c001 	strb	ip, [r3], #1
200028fc:	e3520000 	cmp	r2, #0
20002900:	1afffffa 	bne	200028f0 <memcpy+0x8>
20002904:	e12fff1e 	bx	lr

Disassembly of section .text.inflate_packet_flush:

20002908 <inflate_packet_flush>:
20002908:	e5d03000 	ldrb	r3, [r0]
2000290c:	e3530001 	cmp	r3, #1
20002910:	03a03000 	moveq	r3, #0
20002914:	13e00002 	mvnne	r0, #2
20002918:	05c03000 	strbeq	r3, [r0]
2000291c:	01a00003 	moveq	r0, r3
20002920:	e12fff1e 	bx	lr

Disassembly of section .text.inflate_trees_free:

20002924 <inflate_trees_free>:
20002924:	e92d4038 	push	{r3, r4, r5, lr}
20002928:	e1a04001 	mov	r4, r1
2000292c:	e1a01000 	mov	r1, r0
20002930:	ea000006 	b	20002950 <inflate_trees_free+0x2c>
20002934:	e9110024 	ldmdb	r1, {r2, r5}
20002938:	e2411008 	sub	r1, r1, #8
2000293c:	e5943024 	ldr	r3, [r4, #36]	; 0x24
20002940:	e5940028 	ldr	r0, [r4, #40]	; 0x28
20002944:	e1a02182 	lsl	r2, r2, #3
20002948:	e12fff33 	blx	r3
2000294c:	e1a01005 	mov	r1, r5
20002950:	e3510000 	cmp	r1, #0
20002954:	1afffff6 	bne	20002934 <inflate_trees_free+0x10>
20002958:	e1a00001 	mov	r0, r1
2000295c:	e8bd8038 	pop	{r3, r4, r5, pc}

Disassembly of section .text.huft_build:

20002960 <huft_build>:
20002960:	e92d4ff0 	push	{r4, r5, r6, r7, r8, r9, sl, fp, lr}
20002964:	e24ddf43 	sub	sp, sp, #268	; 0x10c
20002968:	e1a08000 	mov	r8, r0
2000296c:	e59f0534 	ldr	r0, [pc, #1332]	; 20002ea8 <huft_build+0x548>
20002970:	e58d1018 	str	r1, [sp, #24]
20002974:	e3a01000 	mov	r1, #0
20002978:	e58d2038 	str	r2, [sp, #56]	; 0x38
2000297c:	e3a02d12 	mov	r2, #1152	; 0x480
20002980:	e58d303c 	str	r3, [sp, #60]	; 0x3c
20002984:	e59d5138 	ldr	r5, [sp, #312]	; 0x138
20002988:	ebffffd0 	bl	200028d0 <_memset>
2000298c:	e59d0018 	ldr	r0, [sp, #24]
20002990:	e3a03000 	mov	r3, #0
20002994:	e58d308c 	str	r3, [sp, #140]	; 0x8c
20002998:	e58d3090 	str	r3, [sp, #144]	; 0x90
2000299c:	e58d3094 	str	r3, [sp, #148]	; 0x94
200029a0:	e58d3098 	str	r3, [sp, #152]	; 0x98
200029a4:	e58d309c 	str	r3, [sp, #156]	; 0x9c
200029a8:	e58d30a0 	str	r3, [sp, #160]	; 0xa0
200029ac:	e58d30a4 	str	r3, [sp, #164]	; 0xa4
200029b0:	e58d30a8 	str	r3, [sp, #168]	; 0xa8
200029b4:	e58d30ac 	str	r3, [sp, #172]	; 0xac
200029b8:	e58d30b0 	str	r3, [sp, #176]	; 0xb0
200029bc:	e58d30b4 	str	r3, [sp, #180]	; 0xb4
200029c0:	e58d30b8 	str	r3, [sp, #184]	; 0xb8
200029c4:	e58d30bc 	str	r3, [sp, #188]	; 0xbc
200029c8:	e58d30c0 	str	r3, [sp, #192]	; 0xc0
200029cc:	e58d30c4 	str	r3, [sp, #196]	; 0xc4
200029d0:	e58d30c8 	str	r3, [sp, #200]	; 0xc8
200029d4:	e1a03008 	mov	r3, r8
200029d8:	e4932004 	ldr	r2, [r3], #4
200029dc:	e28d1f42 	add	r1, sp, #264	; 0x108
200029e0:	e2500001 	subs	r0, r0, #1
200029e4:	e0812102 	add	r2, r1, r2, lsl #2
200029e8:	e512107c 	ldr	r1, [r2, #-124]	; 0xffffff84
200029ec:	e2811001 	add	r1, r1, #1
200029f0:	e502107c 	str	r1, [r2, #-124]	; 0xffffff84
200029f4:	1afffff7 	bne	200029d8 <huft_build+0x78>
200029f8:	e59d308c 	ldr	r3, [sp, #140]	; 0x8c
200029fc:	e59d2018 	ldr	r2, [sp, #24]
20002a00:	e1530002 	cmp	r3, r2
20002a04:	059d3134 	ldreq	r3, [sp, #308]	; 0x134
20002a08:	05830000 	streq	r0, [r3]
20002a0c:	05850000 	streq	r0, [r5]
20002a10:	0a000122 	beq	20002ea0 <huft_build+0x540>
20002a14:	e28d108c 	add	r1, sp, #140	; 0x8c
20002a18:	e5956000 	ldr	r6, [r5]
20002a1c:	e1a02001 	mov	r2, r1
20002a20:	e3a03001 	mov	r3, #1
20002a24:	e5b20004 	ldr	r0, [r2, #4]!
20002a28:	e3500000 	cmp	r0, #0
20002a2c:	1a000002 	bne	20002a3c <huft_build+0xdc>
20002a30:	e2833001 	add	r3, r3, #1
20002a34:	e3530010 	cmp	r3, #16
20002a38:	1afffff9 	bne	20002a24 <huft_build+0xc4>
20002a3c:	e1a07003 	mov	r7, r3
20002a40:	e1560003 	cmp	r6, r3
20002a44:	31a06003 	movcc	r6, r3
20002a48:	e28d20cc 	add	r2, sp, #204	; 0xcc
20002a4c:	e3a0400f 	mov	r4, #15
20002a50:	e5320004 	ldr	r0, [r2, #-4]!
20002a54:	e3500000 	cmp	r0, #0
20002a58:	1a000001 	bne	20002a64 <huft_build+0x104>
20002a5c:	e2544001 	subs	r4, r4, #1
20002a60:	1afffffa 	bne	20002a50 <huft_build+0xf0>
20002a64:	e2430001 	sub	r0, r3, #1
20002a68:	e1560004 	cmp	r6, r4
20002a6c:	21a06004 	movcs	r6, r4
20002a70:	e3a02001 	mov	r2, #1
20002a74:	e5856000 	str	r6, [r5]
20002a78:	e28d508c 	add	r5, sp, #140	; 0x8c
20002a7c:	e0855100 	add	r5, r5, r0, lsl #2
20002a80:	e1a02312 	lsl	r2, r2, r3
20002a84:	e58d502c 	str	r5, [sp, #44]	; 0x2c
20002a88:	e1a0c005 	mov	ip, r5
20002a8c:	e1a00003 	mov	r0, r3
20002a90:	ea000004 	b	20002aa8 <huft_build+0x148>
20002a94:	e5bc5004 	ldr	r5, [ip, #4]!
20002a98:	e0522005 	subs	r2, r2, r5
20002a9c:	4a0000fc 	bmi	20002e94 <huft_build+0x534>
20002aa0:	e2800001 	add	r0, r0, #1
20002aa4:	e1a02082 	lsl	r2, r2, #1
20002aa8:	e1500004 	cmp	r0, r4
20002aac:	3afffff8 	bcc	20002a94 <huft_build+0x134>
20002ab0:	e28d0f42 	add	r0, sp, #264	; 0x108
20002ab4:	e080c104 	add	ip, r0, r4, lsl #2
20002ab8:	e51c007c 	ldr	r0, [ip, #-124]	; 0xffffff84
20002abc:	e0522000 	subs	r2, r2, r0
20002ac0:	e58d201c 	str	r2, [sp, #28]
20002ac4:	4a0000f2 	bmi	20002e94 <huft_build+0x534>
20002ac8:	e0820000 	add	r0, r2, r0
20002acc:	e1a05004 	mov	r5, r4
20002ad0:	e50c007c 	str	r0, [ip, #-124]	; 0xffffff84
20002ad4:	e3a02000 	mov	r2, #0
20002ad8:	e28d0054 	add	r0, sp, #84	; 0x54
20002adc:	e58d2050 	str	r2, [sp, #80]	; 0x50
20002ae0:	ea000002 	b	20002af0 <huft_build+0x190>
20002ae4:	e5b1c004 	ldr	ip, [r1, #4]!
20002ae8:	e082200c 	add	r2, r2, ip
20002aec:	e4802004 	str	r2, [r0], #4
20002af0:	e2555001 	subs	r5, r5, #1
20002af4:	1afffffa 	bne	20002ae4 <huft_build+0x184>
20002af8:	e1a02005 	mov	r2, r5
20002afc:	e4981004 	ldr	r1, [r8], #4
20002b00:	e3510000 	cmp	r1, #0
20002b04:	0a000006 	beq	20002b24 <huft_build+0x1c4>
20002b08:	e28dcf42 	add	ip, sp, #264	; 0x108
20002b0c:	e08c1101 	add	r1, ip, r1, lsl #2
20002b10:	e59fc390 	ldr	ip, [pc, #912]	; 20002ea8 <huft_build+0x548>
20002b14:	e51100bc 	ldr	r0, [r1, #-188]	; 0xffffff44
20002b18:	e78c2100 	str	r2, [ip, r0, lsl #2]
20002b1c:	e2800001 	add	r0, r0, #1
20002b20:	e50100bc 	str	r0, [r1, #-188]	; 0xffffff44
20002b24:	e59d0018 	ldr	r0, [sp, #24]
20002b28:	e2822001 	add	r2, r2, #1
20002b2c:	e1520000 	cmp	r2, r0
20002b30:	3afffff1 	bcc	20002afc <huft_build+0x19c>
20002b34:	e2661000 	rsb	r1, r6, #0
20002b38:	e3a02000 	mov	r2, #0
20002b3c:	e0633004 	rsb	r3, r3, r4
20002b40:	e58d204c 	str	r2, [sp, #76]	; 0x4c
20002b44:	e58d3028 	str	r3, [sp, #40]	; 0x28
20002b48:	e3e09000 	mvn	r9, #0
20002b4c:	e58d1020 	str	r1, [sp, #32]
20002b50:	e1a03001 	mov	r3, r1
20002b54:	e58d20cc 	str	r2, [sp, #204]	; 0xcc
20002b58:	e1a0c004 	mov	ip, r4
20002b5c:	e58d2010 	str	r2, [sp, #16]
20002b60:	e59fb340 	ldr	fp, [pc, #832]	; 20002ea8 <huft_build+0x548>
20002b64:	ea0000c1 	b	20002e70 <huft_build+0x510>
20002b68:	e59d002c 	ldr	r0, [sp, #44]	; 0x2c
20002b6c:	e2471001 	sub	r1, r7, #1
20002b70:	e58dc044 	str	ip, [sp, #68]	; 0x44
20002b74:	e5b0a004 	ldr	sl, [r0, #4]!
20002b78:	e58d002c 	str	r0, [sp, #44]	; 0x2c
20002b7c:	e3a00001 	mov	r0, #1
20002b80:	e1a00110 	lsl	r0, r0, r1
20002b84:	e26a1000 	rsb	r1, sl, #0
20002b88:	e58d0040 	str	r0, [sp, #64]	; 0x40
20002b8c:	e58d1024 	str	r1, [sp, #36]	; 0x24
20002b90:	ea0000a9 	b	20002e3c <huft_build+0x4dc>
20002b94:	e3a00001 	mov	r0, #1
20002b98:	e2892001 	add	r2, r9, #1
20002b9c:	e58d2008 	str	r2, [sp, #8]
20002ba0:	e1a00410 	lsl	r0, r0, r4
20002ba4:	e150000a 	cmp	r0, sl
20002ba8:	9a000014 	bls	20002c00 <huft_build+0x2a0>
20002bac:	e59d3028 	ldr	r3, [sp, #40]	; 0x28
20002bb0:	e0842003 	add	r2, r4, r3
20002bb4:	e1520006 	cmp	r2, r6
20002bb8:	21a02006 	movcs	r2, r6
20002bbc:	e1540002 	cmp	r4, r2
20002bc0:	2a00000e 	bcs	20002c00 <huft_build+0x2a0>
20002bc4:	e59d5024 	ldr	r5, [sp, #36]	; 0x24
20002bc8:	e28d108c 	add	r1, sp, #140	; 0x8c
20002bcc:	e0813107 	add	r3, r1, r7, lsl #2
20002bd0:	e0800005 	add	r0, r0, r5
20002bd4:	e1a05004 	mov	r5, r4
20002bd8:	ea000004 	b	20002bf0 <huft_build+0x290>
20002bdc:	e5b31004 	ldr	r1, [r3, #4]!
20002be0:	e1a00080 	lsl	r0, r0, #1
20002be4:	e1500001 	cmp	r0, r1
20002be8:	9a000005 	bls	20002c04 <huft_build+0x2a4>
20002bec:	e0610000 	rsb	r0, r1, r0
20002bf0:	e2855001 	add	r5, r5, #1
20002bf4:	e1550002 	cmp	r5, r2
20002bf8:	1afffff7 	bne	20002bdc <huft_build+0x27c>
20002bfc:	ea000000 	b	20002c04 <huft_build+0x2a4>
20002c00:	e1a05004 	mov	r5, r4
20002c04:	e3a03001 	mov	r3, #1
20002c08:	e59d013c 	ldr	r0, [sp, #316]	; 0x13c
20002c0c:	e1a03513 	lsl	r3, r3, r5
20002c10:	e58d3010 	str	r3, [sp, #16]
20002c14:	e2832001 	add	r2, r3, #1
20002c18:	e5903020 	ldr	r3, [r0, #32]
20002c1c:	e58d2034 	str	r2, [sp, #52]	; 0x34
20002c20:	e1a01002 	mov	r1, r2
20002c24:	e5900028 	ldr	r0, [r0, #40]	; 0x28
20002c28:	e3a02008 	mov	r2, #8
20002c2c:	e58dc004 	str	ip, [sp, #4]
20002c30:	e12fff33 	blx	r3
20002c34:	e59dc004 	ldr	ip, [sp, #4]
20002c38:	e3500000 	cmp	r0, #0
20002c3c:	1a000006 	bne	20002c5c <huft_build+0x2fc>
20002c40:	e59d1008 	ldr	r1, [sp, #8]
20002c44:	e3510000 	cmp	r1, #0
20002c48:	0a000093 	beq	20002e9c <huft_build+0x53c>
20002c4c:	e59d00cc 	ldr	r0, [sp, #204]	; 0xcc
20002c50:	e59d113c 	ldr	r1, [sp, #316]	; 0x13c
20002c54:	ebffff32 	bl	20002924 <inflate_trees_free>
20002c58:	ea00008f 	b	20002e9c <huft_build+0x53c>
20002c5c:	e59d1134 	ldr	r1, [sp, #308]	; 0x134
20002c60:	e1a02000 	mov	r2, r0
20002c64:	e59d3034 	ldr	r3, [sp, #52]	; 0x34
20002c68:	e4823008 	str	r3, [r2], #8
20002c6c:	e2803004 	add	r3, r0, #4
20002c70:	e5812000 	str	r2, [r1]
20002c74:	e59d1008 	ldr	r1, [sp, #8]
20002c78:	e58d3134 	str	r3, [sp, #308]	; 0x134
20002c7c:	e3a03000 	mov	r3, #0
20002c80:	e5803004 	str	r3, [r0, #4]
20002c84:	e28d0f42 	add	r0, sp, #264	; 0x108
20002c88:	e0803101 	add	r3, r0, r1, lsl #2
20002c8c:	e3510000 	cmp	r1, #0
20002c90:	e503203c 	str	r2, [r3, #-60]	; 0xffffffc4
20002c94:	0a00000b 	beq	20002cc8 <huft_build+0x368>
20002c98:	e0809109 	add	r9, r0, r9, lsl #2
20002c9c:	e066000b 	rsb	r0, r6, fp
20002ca0:	e1a00038 	lsr	r0, r8, r0
20002ca4:	e50380bc 	str	r8, [r3, #-188]	; 0xffffff44
20002ca8:	e519103c 	ldr	r1, [r9, #-60]	; 0xffffffc4
20002cac:	e58d2014 	str	r2, [sp, #20]
20002cb0:	e0813180 	add	r3, r1, r0, lsl #3
20002cb4:	e58d500c 	str	r5, [sp, #12]
20002cb8:	e7c15180 	strb	r5, [r1, r0, lsl #3]
20002cbc:	e5c36001 	strb	r6, [r3, #1]
20002cc0:	e59d5014 	ldr	r5, [sp, #20]
20002cc4:	e5835004 	str	r5, [r3, #4]
20002cc8:	e59d0020 	ldr	r0, [sp, #32]
20002ccc:	e1a0300b 	mov	r3, fp
20002cd0:	e59d9008 	ldr	r9, [sp, #8]
20002cd4:	e0844000 	add	r4, r4, r0
20002cd8:	e083b006 	add	fp, r3, r6
20002cdc:	e157000b 	cmp	r7, fp
20002ce0:	caffffab 	bgt	20002b94 <huft_build+0x234>
20002ce4:	e59f11bc 	ldr	r1, [pc, #444]	; 20002ea8 <huft_build+0x548>
20002ce8:	e1a0b00c 	mov	fp, ip
20002cec:	e1a05008 	mov	r5, r8
20002cf0:	e063a007 	rsb	sl, r3, r7
20002cf4:	e061100c 	rsb	r1, r1, ip
20002cf8:	e59dc018 	ldr	ip, [sp, #24]
20002cfc:	e15c0141 	cmp	ip, r1, asr #2
20002d00:	93a010c0 	movls	r1, #192	; 0xc0
20002d04:	958d100c 	strls	r1, [sp, #12]
20002d08:	9a000019 	bls	20002d74 <huft_build+0x414>
20002d0c:	e59b1000 	ldr	r1, [fp]
20002d10:	e59d0038 	ldr	r0, [sp, #56]	; 0x38
20002d14:	e1510000 	cmp	r1, r0
20002d18:	2a000006 	bcs	20002d38 <huft_build+0x3d8>
20002d1c:	e35100ff 	cmp	r1, #255	; 0xff
20002d20:	e28bb004 	add	fp, fp, #4
20002d24:	83a0c060 	movhi	ip, #96	; 0x60
20002d28:	93a0c000 	movls	ip, #0
20002d2c:	e58d1014 	str	r1, [sp, #20]
20002d30:	e58dc00c 	str	ip, [sp, #12]
20002d34:	ea00000e 	b	20002d74 <huft_build+0x414>
20002d38:	e59d0130 	ldr	r0, [sp, #304]	; 0x130
20002d3c:	e59dc03c 	ldr	ip, [sp, #60]	; 0x3c
20002d40:	e3500000 	cmp	r0, #0
20002d44:	135c0000 	cmpne	ip, #0
20002d48:	0a000009 	beq	20002d74 <huft_build+0x414>
20002d4c:	e59d0038 	ldr	r0, [sp, #56]	; 0x38
20002d50:	e28bb004 	add	fp, fp, #4
20002d54:	e59dc130 	ldr	ip, [sp, #304]	; 0x130
20002d58:	e0601001 	rsb	r1, r0, r1
20002d5c:	e79c0101 	ldr	r0, [ip, r1, lsl #2]
20002d60:	e2800050 	add	r0, r0, #80	; 0x50
20002d64:	e58d000c 	str	r0, [sp, #12]
20002d68:	e59d003c 	ldr	r0, [sp, #60]	; 0x3c
20002d6c:	e7901101 	ldr	r1, [r0, r1, lsl #2]
20002d70:	e58d1014 	str	r1, [sp, #20]
20002d74:	e3a04001 	mov	r4, #1
20002d78:	e0631007 	rsb	r1, r3, r7
20002d7c:	e58d3034 	str	r3, [sp, #52]	; 0x34
20002d80:	e1a04114 	lsl	r4, r4, r1
20002d84:	e1a01335 	lsr	r1, r5, r3
20002d88:	e1a0c184 	lsl	ip, r4, #3
20002d8c:	e58dc008 	str	ip, [sp, #8]
20002d90:	e082c181 	add	ip, r2, r1, lsl #3
20002d94:	ea000008 	b	20002dbc <huft_build+0x45c>
20002d98:	e3e08007 	mvn	r8, #7
20002d9c:	e59d300c 	ldr	r3, [sp, #12]
20002da0:	e1a0000c 	mov	r0, ip
20002da4:	e0811004 	add	r1, r1, r4
20002da8:	e0080498 	mul	r8, r8, r4
20002dac:	e7e03008 	strb	r3, [r0, r8]!
20002db0:	e5c0a001 	strb	sl, [r0, #1]
20002db4:	e59d3014 	ldr	r3, [sp, #20]
20002db8:	e5803004 	str	r3, [r0, #4]
20002dbc:	e59d3010 	ldr	r3, [sp, #16]
20002dc0:	e59d0008 	ldr	r0, [sp, #8]
20002dc4:	e1510003 	cmp	r1, r3
20002dc8:	e08cc000 	add	ip, ip, r0
20002dcc:	3afffff1 	bcc	20002d98 <huft_build+0x438>
20002dd0:	e59d3034 	ldr	r3, [sp, #52]	; 0x34
20002dd4:	e59d0040 	ldr	r0, [sp, #64]	; 0x40
20002dd8:	ea000001 	b	20002de4 <huft_build+0x484>
20002ddc:	e1a05001 	mov	r5, r1
20002de0:	e1a000a0 	lsr	r0, r0, #1
20002de4:	e1100005 	tst	r0, r5
20002de8:	e0251000 	eor	r1, r5, r0
20002dec:	1afffffa 	bne	20002ddc <huft_build+0x47c>
20002df0:	e2890001 	add	r0, r9, #1
20002df4:	e28dc04c 	add	ip, sp, #76	; 0x4c
20002df8:	e1a05001 	mov	r5, r1
20002dfc:	e08c0100 	add	r0, ip, r0, lsl #2
20002e00:	ea000002 	b	20002e10 <huft_build+0x4b0>
20002e04:	e59dc020 	ldr	ip, [sp, #32]
20002e08:	e2499001 	sub	r9, r9, #1
20002e0c:	e083300c 	add	r3, r3, ip
20002e10:	e3590000 	cmp	r9, #0
20002e14:	ba000004 	blt	20002e2c <huft_build+0x4cc>
20002e18:	e3e04000 	mvn	r4, #0
20002e1c:	e530c004 	ldr	ip, [r0, #-4]!
20002e20:	e1c14314 	bic	r4, r1, r4, lsl r3
20002e24:	e154000c 	cmp	r4, ip
20002e28:	1afffff5 	bne	20002e04 <huft_build+0x4a4>
20002e2c:	e59da030 	ldr	sl, [sp, #48]	; 0x30
20002e30:	e59d0024 	ldr	r0, [sp, #36]	; 0x24
20002e34:	e2800001 	add	r0, r0, #1
20002e38:	e58d0024 	str	r0, [sp, #36]	; 0x24
20002e3c:	e24a1001 	sub	r1, sl, #1
20002e40:	e58d1030 	str	r1, [sp, #48]	; 0x30
20002e44:	e3710001 	cmn	r1, #1
20002e48:	10664007 	rsbne	r4, r6, r7
20002e4c:	11a08005 	movne	r8, r5
20002e50:	10634004 	rsbne	r4, r3, r4
20002e54:	11a0c00b 	movne	ip, fp
20002e58:	1affff9e 	bne	20002cd8 <huft_build+0x378>
20002e5c:	e59dc044 	ldr	ip, [sp, #68]	; 0x44
20002e60:	e2877001 	add	r7, r7, #1
20002e64:	e59d0028 	ldr	r0, [sp, #40]	; 0x28
20002e68:	e2400001 	sub	r0, r0, #1
20002e6c:	e58d0028 	str	r0, [sp, #40]	; 0x28
20002e70:	e157000c 	cmp	r7, ip
20002e74:	daffff3b 	ble	20002b68 <huft_build+0x208>
20002e78:	e59d101c 	ldr	r1, [sp, #28]
20002e7c:	e3510000 	cmp	r1, #0
20002e80:	135c0001 	cmpne	ip, #1
20002e84:	03a00000 	moveq	r0, #0
20002e88:	13a00001 	movne	r0, #1
20002e8c:	13e00004 	mvnne	r0, #4
20002e90:	ea000002 	b	20002ea0 <huft_build+0x540>
20002e94:	e3e00002 	mvn	r0, #2
20002e98:	ea000000 	b	20002ea0 <huft_build+0x540>
20002e9c:	e3e00003 	mvn	r0, #3
20002ea0:	e28ddf43 	add	sp, sp, #268	; 0x10c
20002ea4:	e8bd8ff0 	pop	{r4, r5, r6, r7, r8, r9, sl, fp, pc}
20002ea8:	200055c4 	.word	0x200055c4

Disassembly of section .text.inflate_trees_fixed:

20002eac <inflate_trees_fixed>:
20002eac:	e92d41f0 	push	{r4, r5, r6, r7, r8, lr}
20002eb0:	e1a08003 	mov	r8, r3
20002eb4:	e59f31b4 	ldr	r3, [pc, #436]	; 20003070 <inflate_trees_fixed+0x1c4>
20002eb8:	e1a06001 	mov	r6, r1
20002ebc:	e1a05002 	mov	r5, r2
20002ec0:	e24dd040 	sub	sp, sp, #64	; 0x40
20002ec4:	e1a07000 	mov	r7, r0
20002ec8:	e1a02003 	mov	r2, r3
20002ecc:	e5931000 	ldr	r1, [r3]
20002ed0:	e2813001 	add	r3, r1, #1
20002ed4:	e3530001 	cmp	r3, #1
20002ed8:	cafffffc 	bgt	20002ed0 <inflate_trees_fixed+0x24>
20002edc:	e5823000 	str	r3, [r2]
20002ee0:	e59f318c 	ldr	r3, [pc, #396]	; 20003074 <inflate_trees_fixed+0x1c8>
20002ee4:	e5934000 	ldr	r4, [r3]
20002ee8:	e3540000 	cmp	r4, #0
20002eec:	1a00004c 	bne	20003024 <inflate_trees_fixed+0x178>
20002ef0:	e59f3180 	ldr	r3, [pc, #384]	; 20003078 <inflate_trees_fixed+0x1cc>
20002ef4:	e1a01004 	mov	r1, r4
20002ef8:	e59f017c 	ldr	r0, [pc, #380]	; 2000307c <inflate_trees_fixed+0x1d0>
20002efc:	e3a02d12 	mov	r2, #1152	; 0x480
20002f00:	e58d4038 	str	r4, [sp, #56]	; 0x38
20002f04:	e58d3030 	str	r3, [sp, #48]	; 0x30
20002f08:	e59f3170 	ldr	r3, [pc, #368]	; 20003080 <inflate_trees_fixed+0x1d4>
20002f0c:	e58d3034 	str	r3, [sp, #52]	; 0x34
20002f10:	ebfffe6e 	bl	200028d0 <_memset>
20002f14:	e59f3160 	ldr	r3, [pc, #352]	; 2000307c <inflate_trees_fixed+0x1d0>
20002f18:	e3a02008 	mov	r2, #8
20002f1c:	e7832004 	str	r2, [r3, r4]
20002f20:	e2844004 	add	r4, r4, #4
20002f24:	e3540d09 	cmp	r4, #576	; 0x240
20002f28:	1afffff9 	bne	20002f14 <inflate_trees_fixed+0x68>
20002f2c:	e2832f8f 	add	r2, r3, #572	; 0x23c
20002f30:	e2833fff 	add	r3, r3, #1020	; 0x3fc
20002f34:	ea000001 	b	20002f40 <inflate_trees_fixed+0x94>
20002f38:	e3a01009 	mov	r1, #9
20002f3c:	e5a21004 	str	r1, [r2, #4]!
20002f40:	e1520003 	cmp	r2, r3
20002f44:	1afffffb 	bne	20002f38 <inflate_trees_fixed+0x8c>
20002f48:	e59f3134 	ldr	r3, [pc, #308]	; 20003084 <inflate_trees_fixed+0x1d8>
20002f4c:	e2832060 	add	r2, r3, #96	; 0x60
20002f50:	ea000001 	b	20002f5c <inflate_trees_fixed+0xb0>
20002f54:	e3a01007 	mov	r1, #7
20002f58:	e5a31004 	str	r1, [r3, #4]!
20002f5c:	e1530002 	cmp	r3, r2
20002f60:	1afffffb 	bne	20002f54 <inflate_trees_fixed+0xa8>
20002f64:	e59f4110 	ldr	r4, [pc, #272]	; 2000307c <inflate_trees_fixed+0x1d0>
20002f68:	e3a03008 	mov	r3, #8
20002f6c:	e3a02007 	mov	r2, #7
20002f70:	e3a01e12 	mov	r1, #288	; 0x120
20002f74:	e1a00004 	mov	r0, r4
20002f78:	e5843460 	str	r3, [r4, #1120]	; 0x460
20002f7c:	e5843464 	str	r3, [r4, #1124]	; 0x464
20002f80:	e5843468 	str	r3, [r4, #1128]	; 0x468
20002f84:	e584346c 	str	r3, [r4, #1132]	; 0x46c
20002f88:	e5843470 	str	r3, [r4, #1136]	; 0x470
20002f8c:	e5843474 	str	r3, [r4, #1140]	; 0x474
20002f90:	e5843478 	str	r3, [r4, #1144]	; 0x478
20002f94:	e584347c 	str	r3, [r4, #1148]	; 0x47c
20002f98:	e59f30e8 	ldr	r3, [pc, #232]	; 20003088 <inflate_trees_fixed+0x1dc>
20002f9c:	e5832000 	str	r2, [r3]
20002fa0:	e59f20e4 	ldr	r2, [pc, #228]	; 2000308c <inflate_trees_fixed+0x1e0>
20002fa4:	e58d3008 	str	r3, [sp, #8]
20002fa8:	e28d3010 	add	r3, sp, #16
20002fac:	e58d300c 	str	r3, [sp, #12]
20002fb0:	e58d2000 	str	r2, [sp]
20002fb4:	e59f20d4 	ldr	r2, [pc, #212]	; 20003090 <inflate_trees_fixed+0x1e4>
20002fb8:	e59f30d4 	ldr	r3, [pc, #212]	; 20003094 <inflate_trees_fixed+0x1e8>
20002fbc:	e58d2004 	str	r2, [sp, #4]
20002fc0:	e3002101 	movw	r2, #257	; 0x101
20002fc4:	ebfffe65 	bl	20002960 <huft_build>
20002fc8:	e3a03000 	mov	r3, #0
20002fcc:	e3a02005 	mov	r2, #5
20002fd0:	e7842003 	str	r2, [r4, r3]
20002fd4:	e2833004 	add	r3, r3, #4
20002fd8:	e3530078 	cmp	r3, #120	; 0x78
20002fdc:	1afffffa 	bne	20002fcc <inflate_trees_fixed+0x120>
20002fe0:	e59f30b0 	ldr	r3, [pc, #176]	; 20003098 <inflate_trees_fixed+0x1ec>
20002fe4:	e3a0101e 	mov	r1, #30
20002fe8:	e59f008c 	ldr	r0, [pc, #140]	; 2000307c <inflate_trees_fixed+0x1d0>
20002fec:	e5832000 	str	r2, [r3]
20002ff0:	e59f20a4 	ldr	r2, [pc, #164]	; 2000309c <inflate_trees_fixed+0x1f0>
20002ff4:	e58d3008 	str	r3, [sp, #8]
20002ff8:	e28d3010 	add	r3, sp, #16
20002ffc:	e58d300c 	str	r3, [sp, #12]
20003000:	e58d2000 	str	r2, [sp]
20003004:	e59f2094 	ldr	r2, [pc, #148]	; 200030a0 <inflate_trees_fixed+0x1f4>
20003008:	e59f3094 	ldr	r3, [pc, #148]	; 200030a4 <inflate_trees_fixed+0x1f8>
2000300c:	e58d2004 	str	r2, [sp, #4]
20003010:	e3a02000 	mov	r2, #0
20003014:	ebfffe51 	bl	20002960 <huft_build>
20003018:	e59f3054 	ldr	r3, [pc, #84]	; 20003074 <inflate_trees_fixed+0x1c8>
2000301c:	e3a02001 	mov	r2, #1
20003020:	e5832000 	str	r2, [r3]
20003024:	e59f3044 	ldr	r3, [pc, #68]	; 20003070 <inflate_trees_fixed+0x1c4>
20003028:	e3a00000 	mov	r0, #0
2000302c:	e5932000 	ldr	r2, [r3]
20003030:	e2422001 	sub	r2, r2, #1
20003034:	e5832000 	str	r2, [r3]
20003038:	e59f3048 	ldr	r3, [pc, #72]	; 20003088 <inflate_trees_fixed+0x1dc>
2000303c:	e5933000 	ldr	r3, [r3]
20003040:	e5873000 	str	r3, [r7]
20003044:	e59f304c 	ldr	r3, [pc, #76]	; 20003098 <inflate_trees_fixed+0x1ec>
20003048:	e5933000 	ldr	r3, [r3]
2000304c:	e5863000 	str	r3, [r6]
20003050:	e59f3038 	ldr	r3, [pc, #56]	; 20003090 <inflate_trees_fixed+0x1e4>
20003054:	e5933000 	ldr	r3, [r3]
20003058:	e5853000 	str	r3, [r5]
2000305c:	e59f303c 	ldr	r3, [pc, #60]	; 200030a0 <inflate_trees_fixed+0x1f4>
20003060:	e5933000 	ldr	r3, [r3]
20003064:	e5883000 	str	r3, [r8]
20003068:	e28dd040 	add	sp, sp, #64	; 0x40
2000306c:	e8bd81f0 	pop	{r4, r5, r6, r7, r8, pc}
20003070:	200055c0 	.word	0x200055c0
20003074:	200055bc 	.word	0x200055bc
20003078:	20002740 	.word	0x20002740
2000307c:	20005a44 	.word	0x20005a44
20003080:	20002764 	.word	0x20002764
20003084:	20005e40 	.word	0x20005e40
20003088:	20006f68 	.word	0x20006f68
2000308c:	200051a8 	.word	0x200051a8
20003090:	20005ed4 	.word	0x20005ed4
20003094:	200054d4 	.word	0x200054d4
20003098:	20006f6c 	.word	0x20006f6c
2000309c:	20005130 	.word	0x20005130
200030a0:	20005ed0 	.word	0x20005ed0
200030a4:	2000545c 	.word	0x2000545c

Disassembly of section .text.inflate_trees_dynamic:

200030a8 <inflate_trees_dynamic>:
200030a8:	e92d47ff 	push	{r0, r1, r2, r3, r4, r5, r6, r7, r8, r9, sl, lr}
200030ac:	e1a06002 	mov	r6, r2
200030b0:	e59f20e8 	ldr	r2, [pc, #232]	; 200031a0 <inflate_trees_dynamic+0xf8>
200030b4:	e1a07000 	mov	r7, r0
200030b8:	e59d5034 	ldr	r5, [sp, #52]	; 0x34
200030bc:	e1a08001 	mov	r8, r1
200030c0:	e59d403c 	ldr	r4, [sp, #60]	; 0x3c
200030c4:	e1a00006 	mov	r0, r6
200030c8:	e58d2000 	str	r2, [sp]
200030cc:	e1a01007 	mov	r1, r7
200030d0:	e58d3008 	str	r3, [sp, #8]
200030d4:	e3002101 	movw	r2, #257	; 0x101
200030d8:	e59f30c4 	ldr	r3, [pc, #196]	; 200031a4 <inflate_trees_dynamic+0xfc>
200030dc:	e59da038 	ldr	sl, [sp, #56]	; 0x38
200030e0:	e58d5004 	str	r5, [sp, #4]
200030e4:	e58d400c 	str	r4, [sp, #12]
200030e8:	ebfffe1c 	bl	20002960 <huft_build>
200030ec:	e2509000 	subs	r9, r0, #0
200030f0:	0a00000c 	beq	20003128 <inflate_trees_dynamic+0x80>
200030f4:	e3790003 	cmn	r9, #3
200030f8:	059f30a8 	ldreq	r3, [pc, #168]	; 200031a8 <inflate_trees_dynamic+0x100>
200030fc:	05843018 	streq	r3, [r4, #24]
20003100:	0a000023 	beq	20003194 <inflate_trees_dynamic+0xec>
20003104:	e3790005 	cmn	r9, #5
20003108:	1a000021 	bne	20003194 <inflate_trees_dynamic+0xec>
2000310c:	e5950000 	ldr	r0, [r5]
20003110:	e1a01004 	mov	r1, r4
20003114:	ebfffe02 	bl	20002924 <inflate_trees_free>
20003118:	e59f308c 	ldr	r3, [pc, #140]	; 200031ac <inflate_trees_dynamic+0x104>
2000311c:	e2899002 	add	r9, r9, #2
20003120:	e5843018 	str	r3, [r4, #24]
20003124:	ea00001a 	b	20003194 <inflate_trees_dynamic+0xec>
20003128:	e59f3080 	ldr	r3, [pc, #128]	; 200031b0 <inflate_trees_dynamic+0x108>
2000312c:	e1a02009 	mov	r2, r9
20003130:	e0860107 	add	r0, r6, r7, lsl #2
20003134:	e1a01008 	mov	r1, r8
20003138:	e88d0408 	stm	sp, {r3, sl}
2000313c:	e59d3030 	ldr	r3, [sp, #48]	; 0x30
20003140:	e58d400c 	str	r4, [sp, #12]
20003144:	e58d3008 	str	r3, [sp, #8]
20003148:	e59f3064 	ldr	r3, [pc, #100]	; 200031b4 <inflate_trees_dynamic+0x10c>
2000314c:	ebfffe03 	bl	20002960 <huft_build>
20003150:	e2509000 	subs	r9, r0, #0
20003154:	0a00000e 	beq	20003194 <inflate_trees_dynamic+0xec>
20003158:	e3790003 	cmn	r9, #3
2000315c:	059f3044 	ldreq	r3, [pc, #68]	; 200031a8 <inflate_trees_dynamic+0x100>
20003160:	05843018 	streq	r3, [r4, #24]
20003164:	0a000007 	beq	20003188 <inflate_trees_dynamic+0xe0>
20003168:	e3790005 	cmn	r9, #5
2000316c:	1a000005 	bne	20003188 <inflate_trees_dynamic+0xe0>
20003170:	e59a0000 	ldr	r0, [sl]
20003174:	e1a01004 	mov	r1, r4
20003178:	ebfffde9 	bl	20002924 <inflate_trees_free>
2000317c:	e59f3028 	ldr	r3, [pc, #40]	; 200031ac <inflate_trees_dynamic+0x104>
20003180:	e2899002 	add	r9, r9, #2
20003184:	e5843018 	str	r3, [r4, #24]
20003188:	e5950000 	ldr	r0, [r5]
2000318c:	e1a01004 	mov	r1, r4
20003190:	ebfffde3 	bl	20002924 <inflate_trees_free>
20003194:	e1a00009 	mov	r0, r9
20003198:	e28dd010 	add	sp, sp, #16
2000319c:	e8bd87f0 	pop	{r4, r5, r6, r7, r8, r9, sl, pc}
200031a0:	200051a8 	.word	0x200051a8
200031a4:	200054d4 	.word	0x200054d4
200031a8:	20005268 	.word	0x20005268
200031ac:	2000528b 	.word	0x2000528b
200031b0:	20005130 	.word	0x20005130
200031b4:	2000545c 	.word	0x2000545c

Disassembly of section .text.inflate_trees_bits:

200031b8 <inflate_trees_bits>:
200031b8:	e92d4030 	push	{r4, r5, lr}
200031bc:	e24dd014 	sub	sp, sp, #20
200031c0:	e1a04003 	mov	r4, r3
200031c4:	e1a05002 	mov	r5, r2
200031c8:	e58d1008 	str	r1, [sp, #8]
200031cc:	e3a01013 	mov	r1, #19
200031d0:	e3a03000 	mov	r3, #0
200031d4:	e58d2004 	str	r2, [sp, #4]
200031d8:	e1a02001 	mov	r2, r1
200031dc:	e58d3000 	str	r3, [sp]
200031e0:	e58d400c 	str	r4, [sp, #12]
200031e4:	ebfffddd 	bl	20002960 <huft_build>
200031e8:	e3700003 	cmn	r0, #3
200031ec:	059f302c 	ldreq	r3, [pc, #44]	; 20003220 <inflate_trees_bits+0x68>
200031f0:	05843018 	streq	r3, [r4, #24]
200031f4:	0a000007 	beq	20003218 <inflate_trees_bits+0x60>
200031f8:	e3700005 	cmn	r0, #5
200031fc:	1a000005 	bne	20003218 <inflate_trees_bits+0x60>
20003200:	e5950000 	ldr	r0, [r5]
20003204:	e1a01004 	mov	r1, r4
20003208:	ebfffdc5 	bl	20002924 <inflate_trees_free>
2000320c:	e59f3010 	ldr	r3, [pc, #16]	; 20003224 <inflate_trees_bits+0x6c>
20003210:	e3e00002 	mvn	r0, #2
20003214:	e5843018 	str	r3, [r4, #24]
20003218:	e28dd014 	add	sp, sp, #20
2000321c:	e8bd8030 	pop	{r4, r5, pc}
20003220:	200052aa 	.word	0x200052aa
20003224:	200052d2 	.word	0x200052d2

Disassembly of section .text.inflate_codes_new:

20003228 <inflate_codes_new>:
20003228:	e92d40f8 	push	{r3, r4, r5, r6, r7, lr}
2000322c:	e1a04002 	mov	r4, r2
20003230:	e59d2018 	ldr	r2, [sp, #24]
20003234:	e1a06000 	mov	r6, r0
20003238:	e1a05001 	mov	r5, r1
2000323c:	e1a07003 	mov	r7, r3
20003240:	e3a01001 	mov	r1, #1
20003244:	e5923020 	ldr	r3, [r2, #32]
20003248:	e5920028 	ldr	r0, [r2, #40]	; 0x28
2000324c:	e3a0201c 	mov	r2, #28
20003250:	e12fff33 	blx	r3
20003254:	e3500000 	cmp	r0, #0
20003258:	08bd80f8 	popeq	{r3, r4, r5, r6, r7, pc}
2000325c:	e3a03000 	mov	r3, #0
20003260:	e5c06010 	strb	r6, [r0, #16]
20003264:	e5c03000 	strb	r3, [r0]
20003268:	e5c05011 	strb	r5, [r0, #17]
2000326c:	e5804014 	str	r4, [r0, #20]
20003270:	e5807018 	str	r7, [r0, #24]
20003274:	e8bd80f8 	pop	{r3, r4, r5, r6, r7, pc}

Disassembly of section .text.inflate_codes_free:

20003278 <inflate_codes_free>:
20003278:	e1a02000 	mov	r2, r0
2000327c:	e5910028 	ldr	r0, [r1, #40]	; 0x28
20003280:	e92d4008 	push	{r3, lr}
20003284:	e5913024 	ldr	r3, [r1, #36]	; 0x24
20003288:	e1a01002 	mov	r1, r2
2000328c:	e3a0201c 	mov	r2, #28
20003290:	e12fff33 	blx	r3
20003294:	e8bd8008 	pop	{r3, pc}

Disassembly of section .text.inflate_blocks_reset:

20003298 <inflate_blocks_reset>:
20003298:	e92d4038 	push	{r3, r4, r5, lr}
2000329c:	e1a04000 	mov	r4, r0
200032a0:	e5903038 	ldr	r3, [r0, #56]	; 0x38
200032a4:	e1a05001 	mov	r5, r1
200032a8:	e3530000 	cmp	r3, #0
200032ac:	1590303c 	ldrne	r3, [r0, #60]	; 0x3c
200032b0:	15823000 	strne	r3, [r2]
200032b4:	e5d03000 	ldrb	r3, [r0]
200032b8:	e2433004 	sub	r3, r3, #4
200032bc:	e6ef3073 	uxtb	r3, r3
200032c0:	e3530001 	cmp	r3, #1
200032c4:	8a000005 	bhi	200032e0 <inflate_blocks_reset+0x48>
200032c8:	e5902018 	ldr	r2, [r0, #24]
200032cc:	e5913024 	ldr	r3, [r1, #36]	; 0x24
200032d0:	e5910028 	ldr	r0, [r1, #40]	; 0x28
200032d4:	e1a02102 	lsl	r2, r2, #2
200032d8:	e594100c 	ldr	r1, [r4, #12]
200032dc:	e12fff33 	blx	r3
200032e0:	e5d43000 	ldrb	r3, [r4]
200032e4:	e3530006 	cmp	r3, #6
200032e8:	1a000008 	bne	20003310 <inflate_blocks_reset+0x78>
200032ec:	e594000c 	ldr	r0, [r4, #12]
200032f0:	e1a01005 	mov	r1, r5
200032f4:	ebffffdf 	bl	20003278 <inflate_codes_free>
200032f8:	e1a01005 	mov	r1, r5
200032fc:	e5940008 	ldr	r0, [r4, #8]
20003300:	ebfffd87 	bl	20002924 <inflate_trees_free>
20003304:	e5940004 	ldr	r0, [r4, #4]
20003308:	e1a01005 	mov	r1, r5
2000330c:	ebfffd84 	bl	20002924 <inflate_trees_free>
20003310:	e5943028 	ldr	r3, [r4, #40]	; 0x28
20003314:	e3a00000 	mov	r0, #0
20003318:	e5c40000 	strb	r0, [r4]
2000331c:	e5840020 	str	r0, [r4, #32]
20003320:	e5843034 	str	r3, [r4, #52]	; 0x34
20003324:	e5843030 	str	r3, [r4, #48]	; 0x30
20003328:	e5943038 	ldr	r3, [r4, #56]	; 0x38
2000332c:	e5840024 	str	r0, [r4, #36]	; 0x24
20003330:	e1530000 	cmp	r3, r0
20003334:	08bd8038 	popeq	{r3, r4, r5, pc}
20003338:	e1a01000 	mov	r1, r0
2000333c:	e1a02000 	mov	r2, r0
20003340:	e12fff33 	blx	r3
20003344:	e584003c 	str	r0, [r4, #60]	; 0x3c
20003348:	e8bd8038 	pop	{r3, r4, r5, pc}

Disassembly of section .text.inflate_blocks_free:

2000334c <inflate_blocks_free>:
2000334c:	e92d4038 	push	{r3, r4, r5, lr}
20003350:	e1a05000 	mov	r5, r0
20003354:	e1a04001 	mov	r4, r1
20003358:	ebffffce 	bl	20003298 <inflate_blocks_reset>
2000335c:	e5951028 	ldr	r1, [r5, #40]	; 0x28
20003360:	e595202c 	ldr	r2, [r5, #44]	; 0x2c
20003364:	e5943024 	ldr	r3, [r4, #36]	; 0x24
20003368:	e5940028 	ldr	r0, [r4, #40]	; 0x28
2000336c:	e0612002 	rsb	r2, r1, r2
20003370:	e12fff33 	blx	r3
20003374:	e5940028 	ldr	r0, [r4, #40]	; 0x28
20003378:	e5943024 	ldr	r3, [r4, #36]	; 0x24
2000337c:	e1a01005 	mov	r1, r5
20003380:	e3a02040 	mov	r2, #64	; 0x40
20003384:	e12fff33 	blx	r3
20003388:	e3a00000 	mov	r0, #0
2000338c:	e8bd8038 	pop	{r3, r4, r5, pc}

Disassembly of section .text.inflateEnd:

20003390 <inflateEnd>:
20003390:	e92d4013 	push	{r0, r1, r4, lr}
20003394:	e2504000 	subs	r4, r0, #0
20003398:	0a000013 	beq	200033ec <inflateEnd+0x5c>
2000339c:	e594301c 	ldr	r3, [r4, #28]
200033a0:	e3530000 	cmp	r3, #0
200033a4:	0a000010 	beq	200033ec <inflateEnd+0x5c>
200033a8:	e5942024 	ldr	r2, [r4, #36]	; 0x24
200033ac:	e3520000 	cmp	r2, #0
200033b0:	0a00000d 	beq	200033ec <inflateEnd+0x5c>
200033b4:	e5930014 	ldr	r0, [r3, #20]
200033b8:	e3500000 	cmp	r0, #0
200033bc:	0a000002 	beq	200033cc <inflateEnd+0x3c>
200033c0:	e1a01004 	mov	r1, r4
200033c4:	e28d2004 	add	r2, sp, #4
200033c8:	ebffffdf 	bl	2000334c <inflate_blocks_free>
200033cc:	e5940028 	ldr	r0, [r4, #40]	; 0x28
200033d0:	e3a02018 	mov	r2, #24
200033d4:	e5943024 	ldr	r3, [r4, #36]	; 0x24
200033d8:	e594101c 	ldr	r1, [r4, #28]
200033dc:	e12fff33 	blx	r3
200033e0:	e3a00000 	mov	r0, #0
200033e4:	e584001c 	str	r0, [r4, #28]
200033e8:	ea000000 	b	200033f0 <inflateEnd+0x60>
200033ec:	e3e00001 	mvn	r0, #1
200033f0:	e8bd801c 	pop	{r2, r3, r4, pc}

Disassembly of section .text.inflate_blocks_new:

200033f4 <inflate_blocks_new>:
200033f4:	e92d41f0 	push	{r4, r5, r6, r7, r8, lr}
200033f8:	e1a05000 	mov	r5, r0
200033fc:	e5903020 	ldr	r3, [r0, #32]
20003400:	e1a08001 	mov	r8, r1
20003404:	e1a07002 	mov	r7, r2
20003408:	e5900028 	ldr	r0, [r0, #40]	; 0x28
2000340c:	e3a01001 	mov	r1, #1
20003410:	e3a02040 	mov	r2, #64	; 0x40
20003414:	e12fff33 	blx	r3
20003418:	e2504000 	subs	r4, r0, #0
2000341c:	0a000018 	beq	20003484 <inflate_blocks_new+0x90>
20003420:	e5953020 	ldr	r3, [r5, #32]
20003424:	e3a01001 	mov	r1, #1
20003428:	e5950028 	ldr	r0, [r5, #40]	; 0x28
2000342c:	e1a02007 	mov	r2, r7
20003430:	e12fff33 	blx	r3
20003434:	e3500000 	cmp	r0, #0
20003438:	e1a06000 	mov	r6, r0
2000343c:	e5840028 	str	r0, [r4, #40]	; 0x28
20003440:	1a000006 	bne	20003460 <inflate_blocks_new+0x6c>
20003444:	e1a01004 	mov	r1, r4
20003448:	e5953024 	ldr	r3, [r5, #36]	; 0x24
2000344c:	e5950028 	ldr	r0, [r5, #40]	; 0x28
20003450:	e3a02040 	mov	r2, #64	; 0x40
20003454:	e12fff33 	blx	r3
20003458:	e1a04006 	mov	r4, r6
2000345c:	ea000008 	b	20003484 <inflate_blocks_new+0x90>
20003460:	e1a02004 	mov	r2, r4
20003464:	e0806007 	add	r6, r0, r7
20003468:	e3a03000 	mov	r3, #0
2000346c:	e584602c 	str	r6, [r4, #44]	; 0x2c
20003470:	e5848038 	str	r8, [r4, #56]	; 0x38
20003474:	e1a00004 	mov	r0, r4
20003478:	e4c2303c 	strb	r3, [r2], #60	; 0x3c
2000347c:	e1a01005 	mov	r1, r5
20003480:	ebffff84 	bl	20003298 <inflate_blocks_reset>
20003484:	e1a00004 	mov	r0, r4
20003488:	e8bd81f0 	pop	{r4, r5, r6, r7, r8, pc}

Disassembly of section .text.inflateReset:

2000348c <inflateReset>:
2000348c:	e92d4013 	push	{r0, r1, r4, lr}
20003490:	e2501000 	subs	r1, r0, #0
20003494:	0a000010 	beq	200034dc <inflateReset+0x50>
20003498:	e591301c 	ldr	r3, [r1, #28]
2000349c:	e3530000 	cmp	r3, #0
200034a0:	0a00000d 	beq	200034dc <inflateReset+0x50>
200034a4:	e593200c 	ldr	r2, [r3, #12]
200034a8:	e3a04000 	mov	r4, #0
200034ac:	e5930014 	ldr	r0, [r3, #20]
200034b0:	e1520004 	cmp	r2, r4
200034b4:	e5814014 	str	r4, [r1, #20]
200034b8:	13a02002 	movne	r2, #2
200034bc:	01a02004 	moveq	r2, r4
200034c0:	e5814008 	str	r4, [r1, #8]
200034c4:	e5814018 	str	r4, [r1, #24]
200034c8:	e5c32000 	strb	r2, [r3]
200034cc:	e28d2004 	add	r2, sp, #4
200034d0:	ebffff70 	bl	20003298 <inflate_blocks_reset>
200034d4:	e1a00004 	mov	r0, r4
200034d8:	ea000000 	b	200034e0 <inflateReset+0x54>
200034dc:	e3e00001 	mvn	r0, #1
200034e0:	e8bd801c 	pop	{r2, r3, r4, pc}

Disassembly of section .text.inflateInit2:

200034e4 <inflateInit2>:
200034e4:	e92d4070 	push	{r4, r5, r6, lr}
200034e8:	e2505000 	subs	r5, r0, #0
200034ec:	e1a06001 	mov	r6, r1
200034f0:	0a00002a 	beq	200035a0 <inflateInit2+0xbc>
200034f4:	e5953020 	ldr	r3, [r5, #32]
200034f8:	e3a01001 	mov	r1, #1
200034fc:	e5950028 	ldr	r0, [r5, #40]	; 0x28
20003500:	e3a02018 	mov	r2, #24
20003504:	e12fff33 	blx	r3
20003508:	e3500000 	cmp	r0, #0
2000350c:	e1a04000 	mov	r4, r0
20003510:	e585001c 	str	r0, [r5, #28]
20003514:	0a000023 	beq	200035a8 <inflateInit2+0xc4>
20003518:	e3a03000 	mov	r3, #0
2000351c:	e580300c 	str	r3, [r0, #12]
20003520:	e1560003 	cmp	r6, r3
20003524:	e5803014 	str	r3, [r0, #20]
20003528:	b2666000 	rsblt	r6, r6, #0
2000352c:	b2833001 	addlt	r3, r3, #1
20003530:	b580300c 	strlt	r3, [r0, #12]
20003534:	e2463008 	sub	r3, r6, #8
20003538:	e3530007 	cmp	r3, #7
2000353c:	9a000002 	bls	2000354c <inflateInit2+0x68>
20003540:	e1a00005 	mov	r0, r5
20003544:	ebffff91 	bl	20003390 <inflateEnd>
20003548:	ea000014 	b	200035a0 <inflateInit2+0xbc>
2000354c:	e590100c 	ldr	r1, [r0, #12]
20003550:	e3a02001 	mov	r2, #1
20003554:	e59f3054 	ldr	r3, [pc, #84]	; 200035b0 <inflateInit2+0xcc>
20003558:	e3510000 	cmp	r1, #0
2000355c:	e5806010 	str	r6, [r0, #16]
20003560:	01a01003 	moveq	r1, r3
20003564:	13a01000 	movne	r1, #0
20003568:	e1a00005 	mov	r0, r5
2000356c:	e1a02612 	lsl	r2, r2, r6
20003570:	ebffff9f 	bl	200033f4 <inflate_blocks_new>
20003574:	e3500000 	cmp	r0, #0
20003578:	e5840014 	str	r0, [r4, #20]
2000357c:	1a000003 	bne	20003590 <inflateInit2+0xac>
20003580:	e1a00005 	mov	r0, r5
20003584:	ebffff81 	bl	20003390 <inflateEnd>
20003588:	e3e00003 	mvn	r0, #3
2000358c:	e8bd8070 	pop	{r4, r5, r6, pc}
20003590:	e1a00005 	mov	r0, r5
20003594:	ebffffbc 	bl	2000348c <inflateReset>
20003598:	e3a00000 	mov	r0, #0
2000359c:	e8bd8070 	pop	{r4, r5, r6, pc}
200035a0:	e3e00001 	mvn	r0, #1
200035a4:	e8bd8070 	pop	{r4, r5, r6, pc}
200035a8:	e3e00003 	mvn	r0, #3
200035ac:	e8bd8070 	pop	{r4, r5, r6, pc}
200035b0:	20002768 	.word	0x20002768

Disassembly of section .text.inflate_flush:

200035b4 <inflate_flush>:
200035b4:	e92d45f8 	push	{r3, r4, r5, r6, r7, r8, sl, lr}
200035b8:	e1a06002 	mov	r6, r2
200035bc:	e5907034 	ldr	r7, [r0, #52]	; 0x34
200035c0:	e1a04000 	mov	r4, r0
200035c4:	e5908030 	ldr	r8, [r0, #48]	; 0x30
200035c8:	e1a05001 	mov	r5, r1
200035cc:	e5913010 	ldr	r3, [r1, #16]
200035d0:	e1580007 	cmp	r8, r7
200035d4:	e591a00c 	ldr	sl, [r1, #12]
200035d8:	8590702c 	ldrhi	r7, [r0, #44]	; 0x2c
200035dc:	e0687007 	rsb	r7, r8, r7
200035e0:	e1570003 	cmp	r7, r3
200035e4:	21a07003 	movcs	r7, r3
200035e8:	e2572000 	subs	r2, r7, #0
200035ec:	e0673003 	rsb	r3, r7, r3
200035f0:	e5813010 	str	r3, [r1, #16]
200035f4:	13a02001 	movne	r2, #1
200035f8:	e5913014 	ldr	r3, [r1, #20]
200035fc:	e3760005 	cmn	r6, #5
20003600:	13a02000 	movne	r2, #0
20003604:	e0833007 	add	r3, r3, r7
20003608:	e5813014 	str	r3, [r1, #20]
2000360c:	e5903038 	ldr	r3, [r0, #56]	; 0x38
20003610:	e3520000 	cmp	r2, #0
20003614:	13a06000 	movne	r6, #0
20003618:	e3530000 	cmp	r3, #0
2000361c:	0a000004 	beq	20003634 <inflate_flush+0x80>
20003620:	e590003c 	ldr	r0, [r0, #60]	; 0x3c
20003624:	e1a01008 	mov	r1, r8
20003628:	e1a02007 	mov	r2, r7
2000362c:	e12fff33 	blx	r3
20003630:	e584003c 	str	r0, [r4, #60]	; 0x3c
20003634:	e1a0000a 	mov	r0, sl
20003638:	e1a02007 	mov	r2, r7
2000363c:	e1a01008 	mov	r1, r8
20003640:	e08aa007 	add	sl, sl, r7
20003644:	ebfffca7 	bl	200028e8 <memcpy>
20003648:	e594302c 	ldr	r3, [r4, #44]	; 0x2c
2000364c:	e0887007 	add	r7, r8, r7
20003650:	e1570003 	cmp	r7, r3
20003654:	1a000021 	bne	200036e0 <inflate_flush+0x12c>
20003658:	e5948028 	ldr	r8, [r4, #40]	; 0x28
2000365c:	e5943034 	ldr	r3, [r4, #52]	; 0x34
20003660:	e1530007 	cmp	r3, r7
20003664:	05848034 	streq	r8, [r4, #52]	; 0x34
20003668:	e5947034 	ldr	r7, [r4, #52]	; 0x34
2000366c:	e5953010 	ldr	r3, [r5, #16]
20003670:	e0687007 	rsb	r7, r8, r7
20003674:	e1570003 	cmp	r7, r3
20003678:	21a07003 	movcs	r7, r3
2000367c:	e2572000 	subs	r2, r7, #0
20003680:	e0673003 	rsb	r3, r7, r3
20003684:	e5853010 	str	r3, [r5, #16]
20003688:	13a02001 	movne	r2, #1
2000368c:	e5953014 	ldr	r3, [r5, #20]
20003690:	e3760005 	cmn	r6, #5
20003694:	13a02000 	movne	r2, #0
20003698:	e0833007 	add	r3, r3, r7
2000369c:	e5853014 	str	r3, [r5, #20]
200036a0:	e5943038 	ldr	r3, [r4, #56]	; 0x38
200036a4:	e3520000 	cmp	r2, #0
200036a8:	13a06000 	movne	r6, #0
200036ac:	e3530000 	cmp	r3, #0
200036b0:	0a000004 	beq	200036c8 <inflate_flush+0x114>
200036b4:	e594003c 	ldr	r0, [r4, #60]	; 0x3c
200036b8:	e1a01008 	mov	r1, r8
200036bc:	e1a02007 	mov	r2, r7
200036c0:	e12fff33 	blx	r3
200036c4:	e584003c 	str	r0, [r4, #60]	; 0x3c
200036c8:	e1a0000a 	mov	r0, sl
200036cc:	e1a02007 	mov	r2, r7
200036d0:	e1a01008 	mov	r1, r8
200036d4:	e08aa007 	add	sl, sl, r7
200036d8:	ebfffc82 	bl	200028e8 <memcpy>
200036dc:	e0887007 	add	r7, r8, r7
200036e0:	e585a00c 	str	sl, [r5, #12]
200036e4:	e1a00006 	mov	r0, r6
200036e8:	e5847030 	str	r7, [r4, #48]	; 0x30
200036ec:	e8bd85f8 	pop	{r3, r4, r5, r6, r7, r8, sl, pc}

Disassembly of section .text.inflate_fast:

200036f0 <inflate_fast>:
200036f0:	e92d4ff0 	push	{r4, r5, r6, r7, r8, r9, sl, fp, lr}
200036f4:	e24dd01c 	sub	sp, sp, #28
200036f8:	e1a08000 	mov	r8, r0
200036fc:	e1a00001 	mov	r0, r1
20003700:	e59d1040 	ldr	r1, [sp, #64]	; 0x40
20003704:	e59fa344 	ldr	sl, [pc, #836]	; 20003a50 <inflate_fast+0x360>
20003708:	e58d3004 	str	r3, [sp, #4]
2000370c:	e5916030 	ldr	r6, [r1, #48]	; 0x30
20003710:	e5913034 	ldr	r3, [r1, #52]	; 0x34
20003714:	e79a8108 	ldr	r8, [sl, r8, lsl #2]
20003718:	e1530006 	cmp	r3, r6
2000371c:	e58d2000 	str	r2, [sp]
20003720:	e79aa100 	ldr	sl, [sl, r0, lsl #2]
20003724:	32466001 	subcc	r6, r6, #1
20003728:	e59d2044 	ldr	r2, [sp, #68]	; 0x44
2000372c:	2591602c 	ldrcs	r6, [r1, #44]	; 0x2c
20003730:	e5914024 	ldr	r4, [r1, #36]	; 0x24
20003734:	e1a0b002 	mov	fp, r2
20003738:	e5927000 	ldr	r7, [r2]
2000373c:	e0636006 	rsb	r6, r3, r6
20003740:	e5925004 	ldr	r5, [r2, #4]
20003744:	e591c020 	ldr	ip, [r1, #32]
20003748:	e58d8008 	str	r8, [sp, #8]
2000374c:	e58da00c 	str	sl, [sp, #12]
20003750:	ea000003 	b	20003764 <inflate_fast+0x74>
20003754:	e4d72001 	ldrb	r2, [r7], #1
20003758:	e2455001 	sub	r5, r5, #1
2000375c:	e1844c12 	orr	r4, r4, r2, lsl ip
20003760:	e28cc008 	add	ip, ip, #8
20003764:	e35c0013 	cmp	ip, #19
20003768:	859d2008 	ldrhi	r2, [sp, #8]
2000376c:	859d8000 	ldrhi	r8, [sp]
20003770:	80040002 	andhi	r0, r4, r2
20003774:	8a000070 	bhi	2000393c <inflate_fast+0x24c>
20003778:	eafffff5 	b	20003754 <inflate_fast+0x64>
2000377c:	e5d28001 	ldrb	r8, [r2, #1]
20003780:	e3100010 	tst	r0, #16
20003784:	e1a04834 	lsr	r4, r4, r8
20003788:	e068c00c 	rsb	ip, r8, ip
2000378c:	0a000064 	beq	20003924 <inflate_fast+0x234>
20003790:	e5922004 	ldr	r2, [r2, #4]
20003794:	e200000f 	and	r0, r0, #15
20003798:	e1a08034 	lsr	r8, r4, r0
2000379c:	e060c00c 	rsb	ip, r0, ip
200037a0:	e58d2010 	str	r2, [sp, #16]
200037a4:	e59f22a4 	ldr	r2, [pc, #676]	; 20003a50 <inflate_fast+0x360>
200037a8:	e7922100 	ldr	r2, [r2, r0, lsl #2]
200037ac:	e58d2014 	str	r2, [sp, #20]
200037b0:	ea000003 	b	200037c4 <inflate_fast+0xd4>
200037b4:	e4d72001 	ldrb	r2, [r7], #1
200037b8:	e2455001 	sub	r5, r5, #1
200037bc:	e1888c12 	orr	r8, r8, r2, lsl ip
200037c0:	e28cc008 	add	ip, ip, #8
200037c4:	e35c000e 	cmp	ip, #14
200037c8:	9afffff9 	bls	200037b4 <inflate_fast+0xc4>
200037cc:	e59d000c 	ldr	r0, [sp, #12]
200037d0:	e0082000 	and	r2, r8, r0
200037d4:	e59d0004 	ldr	r0, [sp, #4]
200037d8:	e080a182 	add	sl, r0, r2, lsl #3
200037dc:	e7d09182 	ldrb	r9, [r0, r2, lsl #3]
200037e0:	e5da2001 	ldrb	r2, [sl, #1]
200037e4:	e3190010 	tst	r9, #16
200037e8:	e1a08238 	lsr	r8, r8, r2
200037ec:	e062c00c 	rsb	ip, r2, ip
200037f0:	0a00003c 	beq	200038e8 <inflate_fast+0x1f8>
200037f4:	e209900f 	and	r9, r9, #15
200037f8:	e1a02007 	mov	r2, r7
200037fc:	ea000003 	b	20003810 <inflate_fast+0x120>
20003800:	e4d20001 	ldrb	r0, [r2], #1
20003804:	e2455001 	sub	r5, r5, #1
20003808:	e1888c10 	orr	r8, r8, r0, lsl ip
2000380c:	e28cc008 	add	ip, ip, #8
20003810:	e15c0009 	cmp	ip, r9
20003814:	e1a07002 	mov	r7, r2
20003818:	3afffff8 	bcc	20003800 <inflate_fast+0x110>
2000381c:	e59d2014 	ldr	r2, [sp, #20]
20003820:	e069c00c 	rsb	ip, r9, ip
20003824:	e59d0010 	ldr	r0, [sp, #16]
20003828:	e0024004 	and	r4, r2, r4
2000382c:	e59aa004 	ldr	sl, [sl, #4]
20003830:	e0842000 	add	r2, r4, r0
20003834:	e59f0214 	ldr	r0, [pc, #532]	; 20003a50 <inflate_fast+0x360>
20003838:	e1a04938 	lsr	r4, r8, r9
2000383c:	e0626006 	rsb	r6, r2, r6
20003840:	e7900109 	ldr	r0, [r0, r9, lsl #2]
20003844:	e0080000 	and	r0, r8, r0
20003848:	e080000a 	add	r0, r0, sl
2000384c:	e591a028 	ldr	sl, [r1, #40]	; 0x28
20003850:	e06a8003 	rsb	r8, sl, r3
20003854:	e1580000 	cmp	r8, r0
20003858:	3a00000a 	bcc	20003888 <inflate_fast+0x198>
2000385c:	e2600000 	rsb	r0, r0, #0
20003860:	e2422002 	sub	r2, r2, #2
20003864:	e0838000 	add	r8, r3, r0
20003868:	e7d3a000 	ldrb	sl, [r3, r0]
2000386c:	e1a00003 	mov	r0, r3
20003870:	e4c0a001 	strb	sl, [r0], #1
20003874:	e5d8a001 	ldrb	sl, [r8, #1]
20003878:	e2888002 	add	r8, r8, #2
2000387c:	e5c3a001 	strb	sl, [r3, #1]
20003880:	e2803001 	add	r3, r0, #1
20003884:	ea000010 	b	200038cc <inflate_fast+0x1dc>
20003888:	e063a00a 	rsb	sl, r3, sl
2000388c:	e591802c 	ldr	r8, [r1, #44]	; 0x2c
20003890:	e080a00a 	add	sl, r0, sl
20003894:	e152000a 	cmp	r2, sl
20003898:	e06a8008 	rsb	r8, sl, r8
2000389c:	9a00000a 	bls	200038cc <inflate_fast+0x1dc>
200038a0:	e06a2002 	rsb	r2, sl, r2
200038a4:	e3a00000 	mov	r0, #0
200038a8:	e1a09004 	mov	r9, r4
200038ac:	e7d84000 	ldrb	r4, [r8, r0]
200038b0:	e7c34000 	strb	r4, [r3, r0]
200038b4:	e2800001 	add	r0, r0, #1
200038b8:	e150000a 	cmp	r0, sl
200038bc:	1afffffa 	bne	200038ac <inflate_fast+0x1bc>
200038c0:	e5918028 	ldr	r8, [r1, #40]	; 0x28
200038c4:	e1a04009 	mov	r4, r9
200038c8:	e0833000 	add	r3, r3, r0
200038cc:	e3a00000 	mov	r0, #0
200038d0:	e7d8a000 	ldrb	sl, [r8, r0]
200038d4:	e7c3a000 	strb	sl, [r3, r0]
200038d8:	e2800001 	add	r0, r0, #1
200038dc:	e1500002 	cmp	r0, r2
200038e0:	1afffffa 	bne	200038d0 <inflate_fast+0x1e0>
200038e4:	ea000042 	b	200039f4 <inflate_fast+0x304>
200038e8:	e3190040 	tst	r9, #64	; 0x40
200038ec:	1a000006 	bne	2000390c <inflate_fast+0x21c>
200038f0:	e59f0158 	ldr	r0, [pc, #344]	; 20003a50 <inflate_fast+0x360>
200038f4:	e59a2004 	ldr	r2, [sl, #4]
200038f8:	e7900109 	ldr	r0, [r0, r9, lsl #2]
200038fc:	e0080000 	and	r0, r8, r0
20003900:	e082a180 	add	sl, r2, r0, lsl #3
20003904:	e7d29180 	ldrb	r9, [r2, r0, lsl #3]
20003908:	eaffffb4 	b	200037e0 <inflate_fast+0xf0>
2000390c:	e59f0140 	ldr	r0, [pc, #320]	; 20003a54 <inflate_fast+0x364>
20003910:	e58b0018 	str	r0, [fp, #24]
20003914:	e1a001ac 	lsr	r0, ip, #3
20003918:	e0607007 	rsb	r7, r0, r7
2000391c:	e5818024 	str	r8, [r1, #36]	; 0x24
20003920:	ea000026 	b	200039c0 <inflate_fast+0x2d0>
20003924:	e3100040 	tst	r0, #64	; 0x40
20003928:	1a00000e 	bne	20003968 <inflate_fast+0x278>
2000392c:	e5928004 	ldr	r8, [r2, #4]
20003930:	e59f2118 	ldr	r2, [pc, #280]	; 20003a50 <inflate_fast+0x360>
20003934:	e7920100 	ldr	r0, [r2, r0, lsl #2]
20003938:	e0040000 	and	r0, r4, r0
2000393c:	e0882180 	add	r2, r8, r0, lsl #3
20003940:	e7d80180 	ldrb	r0, [r8, r0, lsl #3]
20003944:	e3500000 	cmp	r0, #0
20003948:	1affff8b 	bne	2000377c <inflate_fast+0x8c>
2000394c:	e5d20001 	ldrb	r0, [r2, #1]
20003950:	e2466001 	sub	r6, r6, #1
20003954:	e5922004 	ldr	r2, [r2, #4]
20003958:	e1a04034 	lsr	r4, r4, r0
2000395c:	e060c00c 	rsb	ip, r0, ip
20003960:	e4c32001 	strb	r2, [r3], #1
20003964:	ea000023 	b	200039f8 <inflate_fast+0x308>
20003968:	e3100020 	tst	r0, #32
2000396c:	e1a001ac 	lsr	r0, ip, #3
20003970:	0a00000e 	beq	200039b0 <inflate_fast+0x2c0>
20003974:	e0607007 	rsb	r7, r0, r7
20003978:	e0805005 	add	r5, r0, r5
2000397c:	e59b0000 	ldr	r0, [fp]
20003980:	e20cc007 	and	ip, ip, #7
20003984:	e581c020 	str	ip, [r1, #32]
20003988:	e59bc008 	ldr	ip, [fp, #8]
2000398c:	e0600007 	rsb	r0, r0, r7
20003990:	e5814024 	str	r4, [r1, #36]	; 0x24
20003994:	e08c0000 	add	r0, ip, r0
20003998:	e58b5004 	str	r5, [fp, #4]
2000399c:	e58b0008 	str	r0, [fp, #8]
200039a0:	e3a00001 	mov	r0, #1
200039a4:	e58b7000 	str	r7, [fp]
200039a8:	e5813034 	str	r3, [r1, #52]	; 0x34
200039ac:	ea000025 	b	20003a48 <inflate_fast+0x358>
200039b0:	e59f60a0 	ldr	r6, [pc, #160]	; 20003a58 <inflate_fast+0x368>
200039b4:	e0607007 	rsb	r7, r0, r7
200039b8:	e58b6018 	str	r6, [fp, #24]
200039bc:	e5814024 	str	r4, [r1, #36]	; 0x24
200039c0:	e0805005 	add	r5, r0, r5
200039c4:	e59b0000 	ldr	r0, [fp]
200039c8:	e20cc007 	and	ip, ip, #7
200039cc:	e581c020 	str	ip, [r1, #32]
200039d0:	e59bc008 	ldr	ip, [fp, #8]
200039d4:	e0600007 	rsb	r0, r0, r7
200039d8:	e58b5004 	str	r5, [fp, #4]
200039dc:	e08c0000 	add	r0, ip, r0
200039e0:	e58b7000 	str	r7, [fp]
200039e4:	e58b0008 	str	r0, [fp, #8]
200039e8:	e3e00002 	mvn	r0, #2
200039ec:	e5813034 	str	r3, [r1, #52]	; 0x34
200039f0:	ea000014 	b	20003a48 <inflate_fast+0x358>
200039f4:	e0833000 	add	r3, r3, r0
200039f8:	e3000101 	movw	r0, #257	; 0x101
200039fc:	e3550009 	cmp	r5, #9
20003a00:	81560000 	cmphi	r6, r0
20003a04:	93a00000 	movls	r0, #0
20003a08:	83a00001 	movhi	r0, #1
20003a0c:	8affff54 	bhi	20003764 <inflate_fast+0x74>
20003a10:	e1a061ac 	lsr	r6, ip, #3
20003a14:	e20cc007 	and	ip, ip, #7
20003a18:	e581c020 	str	ip, [r1, #32]
20003a1c:	e0667007 	rsb	r7, r6, r7
20003a20:	e59bc000 	ldr	ip, [fp]
20003a24:	e0865005 	add	r5, r6, r5
20003a28:	e5814024 	str	r4, [r1, #36]	; 0x24
20003a2c:	e59b4008 	ldr	r4, [fp, #8]
20003a30:	e06cc007 	rsb	ip, ip, r7
20003a34:	e58b5004 	str	r5, [fp, #4]
20003a38:	e084c00c 	add	ip, r4, ip
20003a3c:	e58b7000 	str	r7, [fp]
20003a40:	e58bc008 	str	ip, [fp, #8]
20003a44:	e5813034 	str	r3, [r1, #52]	; 0x34
20003a48:	e28dd01c 	add	sp, sp, #28
20003a4c:	e8bd8ff0 	pop	{r4, r5, r6, r7, r8, r9, sl, fp, pc}
20003a50:	20005224 	.word	0x20005224
20003a54:	200052f6 	.word	0x200052f6
20003a58:	2000530c 	.word	0x2000530c

Disassembly of section .text.inflate_codes:

20003a5c <inflate_codes>:
20003a5c:	e92d4ff0 	push	{r4, r5, r6, r7, r8, r9, sl, fp, lr}
20003a60:	e1a05001 	mov	r5, r1
20003a64:	e5903034 	ldr	r3, [r0, #52]	; 0x34
20003a68:	e24dd01c 	sub	sp, sp, #28
20003a6c:	e5919000 	ldr	r9, [r1]
20003a70:	e1a04000 	mov	r4, r0
20003a74:	e591a004 	ldr	sl, [r1, #4]
20003a78:	e5901030 	ldr	r1, [r0, #48]	; 0x30
20003a7c:	e590600c 	ldr	r6, [r0, #12]
20003a80:	e1530001 	cmp	r3, r1
20003a84:	e5908024 	ldr	r8, [r0, #36]	; 0x24
20003a88:	32411001 	subcc	r1, r1, #1
20003a8c:	e5907020 	ldr	r7, [r0, #32]
20003a90:	2590102c 	ldrcs	r1, [r0, #44]	; 0x2c
20003a94:	e0631001 	rsb	r1, r3, r1
20003a98:	e5d60000 	ldrb	r0, [r6]
20003a9c:	e3500009 	cmp	r0, #9
20003aa0:	979ff100 	ldrls	pc, [pc, r0, lsl #2]
20003aa4:	ea0001c3 	b	200041b8 <inflate_codes+0x75c>
20003aa8:	20003ad0 	.word	0x20003ad0
20003aac:	20003b7c 	.word	0x20003b7c
20003ab0:	20003cac 	.word	0x20003cac
20003ab4:	20003d48 	.word	0x20003d48
20003ab8:	20003e58 	.word	0x20003e58
20003abc:	20003eb4 	.word	0x20003eb4
20003ac0:	20004008 	.word	0x20004008
20003ac4:	200040ec 	.word	0x200040ec
20003ac8:	20004148 	.word	0x20004148
20003acc:	20004180 	.word	0x20004180
20003ad0:	e3000101 	movw	r0, #257	; 0x101
20003ad4:	e35a0009 	cmp	sl, #9
20003ad8:	81510000 	cmphi	r1, r0
20003adc:	9a000020 	bls	20003b64 <inflate_codes+0x108>
20003ae0:	e5952000 	ldr	r2, [r5]
20003ae4:	e5951008 	ldr	r1, [r5, #8]
20003ae8:	e0622009 	rsb	r2, r2, r9
20003aec:	e5848024 	str	r8, [r4, #36]	; 0x24
20003af0:	e5847020 	str	r7, [r4, #32]
20003af4:	e0812002 	add	r2, r1, r2
20003af8:	e585a004 	str	sl, [r5, #4]
20003afc:	e5852008 	str	r2, [r5, #8]
20003b00:	e5859000 	str	r9, [r5]
20003b04:	e5843034 	str	r3, [r4, #52]	; 0x34
20003b08:	e5d61011 	ldrb	r1, [r6, #17]
20003b0c:	e5d60010 	ldrb	r0, [r6, #16]
20003b10:	e88d0030 	stm	sp, {r4, r5}
20003b14:	e5962014 	ldr	r2, [r6, #20]
20003b18:	e5963018 	ldr	r3, [r6, #24]
20003b1c:	ebfffef3 	bl	200036f0 <inflate_fast>
20003b20:	e5941030 	ldr	r1, [r4, #48]	; 0x30
20003b24:	e5943034 	ldr	r3, [r4, #52]	; 0x34
20003b28:	e5959000 	ldr	r9, [r5]
20003b2c:	e1530001 	cmp	r3, r1
20003b30:	e595a004 	ldr	sl, [r5, #4]
20003b34:	32411001 	subcc	r1, r1, #1
20003b38:	e5948024 	ldr	r8, [r4, #36]	; 0x24
20003b3c:	2594102c 	ldrcs	r1, [r4, #44]	; 0x2c
20003b40:	e5947020 	ldr	r7, [r4, #32]
20003b44:	e0631001 	rsb	r1, r3, r1
20003b48:	e3500000 	cmp	r0, #0
20003b4c:	e1a02000 	mov	r2, r0
20003b50:	0a000003 	beq	20003b64 <inflate_codes+0x108>
20003b54:	e3500001 	cmp	r0, #1
20003b58:	13a00009 	movne	r0, #9
20003b5c:	03a00007 	moveq	r0, #7
20003b60:	ea000126 	b	20004000 <inflate_codes+0x5a4>
20003b64:	e5d60010 	ldrb	r0, [r6, #16]
20003b68:	e586000c 	str	r0, [r6, #12]
20003b6c:	e5960014 	ldr	r0, [r6, #20]
20003b70:	e5860008 	str	r0, [r6, #8]
20003b74:	e3a00001 	mov	r0, #1
20003b78:	e5c60000 	strb	r0, [r6]
20003b7c:	e596c00c 	ldr	ip, [r6, #12]
20003b80:	e1a0b009 	mov	fp, r9
20003b84:	e58d900c 	str	r9, [sp, #12]
20003b88:	ea000011 	b	20003bd4 <inflate_codes+0x178>
20003b8c:	e35a0000 	cmp	sl, #0
20003b90:	0a000005 	beq	20003bac <inflate_codes+0x150>
20003b94:	e4db2001 	ldrb	r2, [fp], #1
20003b98:	e24aa001 	sub	sl, sl, #1
20003b9c:	e1888712 	orr	r8, r8, r2, lsl r7
20003ba0:	e2877008 	add	r7, r7, #8
20003ba4:	e3a02000 	mov	r2, #0
20003ba8:	ea000009 	b	20003bd4 <inflate_codes+0x178>
20003bac:	e5951000 	ldr	r1, [r5]
20003bb0:	e5950008 	ldr	r0, [r5, #8]
20003bb4:	e061100b 	rsb	r1, r1, fp
20003bb8:	e5848024 	str	r8, [r4, #36]	; 0x24
20003bbc:	e5847020 	str	r7, [r4, #32]
20003bc0:	e0801001 	add	r1, r0, r1
20003bc4:	e585a004 	str	sl, [r5, #4]
20003bc8:	e5851008 	str	r1, [r5, #8]
20003bcc:	e585b000 	str	fp, [r5]
20003bd0:	ea000049 	b	20003cfc <inflate_codes+0x2a0>
20003bd4:	e157000c 	cmp	r7, ip
20003bd8:	e1a0900b 	mov	r9, fp
20003bdc:	3affffea 	bcc	20003b8c <inflate_codes+0x130>
20003be0:	e59f060c 	ldr	r0, [pc, #1548]	; 200041f4 <inflate_codes+0x798>
20003be4:	e58db00c 	str	fp, [sp, #12]
20003be8:	e596b008 	ldr	fp, [r6, #8]
20003bec:	e790010c 	ldr	r0, [r0, ip, lsl #2]
20003bf0:	e0080000 	and	r0, r8, r0
20003bf4:	e58d0014 	str	r0, [sp, #20]
20003bf8:	e08bc180 	add	ip, fp, r0, lsl #3
20003bfc:	e5dc0001 	ldrb	r0, [ip, #1]
20003c00:	e1a08038 	lsr	r8, r8, r0
20003c04:	e0607007 	rsb	r7, r0, r7
20003c08:	e59d0014 	ldr	r0, [sp, #20]
20003c0c:	e7db0180 	ldrb	r0, [fp, r0, lsl #3]
20003c10:	e3500000 	cmp	r0, #0
20003c14:	e58d0014 	str	r0, [sp, #20]
20003c18:	059c0004 	ldreq	r0, [ip, #4]
20003c1c:	05860008 	streq	r0, [r6, #8]
20003c20:	03a00006 	moveq	r0, #6
20003c24:	0a0000f5 	beq	20004000 <inflate_codes+0x5a4>
20003c28:	e59db014 	ldr	fp, [sp, #20]
20003c2c:	e31b0010 	tst	fp, #16
20003c30:	0a000005 	beq	20003c4c <inflate_codes+0x1f0>
20003c34:	e20b000f 	and	r0, fp, #15
20003c38:	e5860008 	str	r0, [r6, #8]
20003c3c:	e59c0004 	ldr	r0, [ip, #4]
20003c40:	e5860004 	str	r0, [r6, #4]
20003c44:	e3a00002 	mov	r0, #2
20003c48:	ea0000ec 	b	20004000 <inflate_codes+0x5a4>
20003c4c:	e59d0014 	ldr	r0, [sp, #20]
20003c50:	e3100040 	tst	r0, #64	; 0x40
20003c54:	0586000c 	streq	r0, [r6, #12]
20003c58:	059c0004 	ldreq	r0, [ip, #4]
20003c5c:	0a00006c 	beq	20003e14 <inflate_codes+0x3b8>
20003c60:	e59db014 	ldr	fp, [sp, #20]
20003c64:	e31b0020 	tst	fp, #32
20003c68:	13a00007 	movne	r0, #7
20003c6c:	1a0000e3 	bne	20004000 <inflate_codes+0x5a4>
20003c70:	e3a02009 	mov	r2, #9
20003c74:	e5c62000 	strb	r2, [r6]
20003c78:	e59f2578 	ldr	r2, [pc, #1400]	; 200041f8 <inflate_codes+0x79c>
20003c7c:	e59db00c 	ldr	fp, [sp, #12]
20003c80:	e5951008 	ldr	r1, [r5, #8]
20003c84:	e5852018 	str	r2, [r5, #24]
20003c88:	e5952000 	ldr	r2, [r5]
20003c8c:	e5848024 	str	r8, [r4, #36]	; 0x24
20003c90:	e062200b 	rsb	r2, r2, fp
20003c94:	e5847020 	str	r7, [r4, #32]
20003c98:	e0812002 	add	r2, r1, r2
20003c9c:	e585a004 	str	sl, [r5, #4]
20003ca0:	e5852008 	str	r2, [r5, #8]
20003ca4:	e585b000 	str	fp, [r5]
20003ca8:	ea00013d 	b	200041a4 <inflate_codes+0x748>
20003cac:	e5960008 	ldr	r0, [r6, #8]
20003cb0:	e1a0c009 	mov	ip, r9
20003cb4:	ea000012 	b	20003d04 <inflate_codes+0x2a8>
20003cb8:	e35a0000 	cmp	sl, #0
20003cbc:	0a000005 	beq	20003cd8 <inflate_codes+0x27c>
20003cc0:	e4dc2001 	ldrb	r2, [ip], #1
20003cc4:	e24aa001 	sub	sl, sl, #1
20003cc8:	e1888712 	orr	r8, r8, r2, lsl r7
20003ccc:	e2877008 	add	r7, r7, #8
20003cd0:	e3a02000 	mov	r2, #0
20003cd4:	ea00000a 	b	20003d04 <inflate_codes+0x2a8>
20003cd8:	e5951000 	ldr	r1, [r5]
20003cdc:	e5950008 	ldr	r0, [r5, #8]
20003ce0:	e061100c 	rsb	r1, r1, ip
20003ce4:	e5848024 	str	r8, [r4, #36]	; 0x24
20003ce8:	e5847020 	str	r7, [r4, #32]
20003cec:	e0801001 	add	r1, r0, r1
20003cf0:	e585a004 	str	sl, [r5, #4]
20003cf4:	e5851008 	str	r1, [r5, #8]
20003cf8:	e585c000 	str	ip, [r5]
20003cfc:	e5843034 	str	r3, [r4, #52]	; 0x34
20003d00:	ea00010b 	b	20004134 <inflate_codes+0x6d8>
20003d04:	e1570000 	cmp	r7, r0
20003d08:	e1a0900c 	mov	r9, ip
20003d0c:	3affffe9 	bcc	20003cb8 <inflate_codes+0x25c>
20003d10:	e59fc4dc 	ldr	ip, [pc, #1244]	; 200041f4 <inflate_codes+0x798>
20003d14:	e0607007 	rsb	r7, r0, r7
20003d18:	e79cb100 	ldr	fp, [ip, r0, lsl #2]
20003d1c:	e596c004 	ldr	ip, [r6, #4]
20003d20:	e008b00b 	and	fp, r8, fp
20003d24:	e1a08038 	lsr	r8, r8, r0
20003d28:	e5d60011 	ldrb	r0, [r6, #17]
20003d2c:	e08cc00b 	add	ip, ip, fp
20003d30:	e586c004 	str	ip, [r6, #4]
20003d34:	e586000c 	str	r0, [r6, #12]
20003d38:	e5960018 	ldr	r0, [r6, #24]
20003d3c:	e5860008 	str	r0, [r6, #8]
20003d40:	e3a00003 	mov	r0, #3
20003d44:	e5c60000 	strb	r0, [r6]
20003d48:	e596b00c 	ldr	fp, [r6, #12]
20003d4c:	e1a00009 	mov	r0, r9
20003d50:	e58d900c 	str	r9, [sp, #12]
20003d54:	ea000011 	b	20003da0 <inflate_codes+0x344>
20003d58:	e35a0000 	cmp	sl, #0
20003d5c:	0a000005 	beq	20003d78 <inflate_codes+0x31c>
20003d60:	e4d02001 	ldrb	r2, [r0], #1
20003d64:	e24aa001 	sub	sl, sl, #1
20003d68:	e1888712 	orr	r8, r8, r2, lsl r7
20003d6c:	e2877008 	add	r7, r7, #8
20003d70:	e3a02000 	mov	r2, #0
20003d74:	ea000009 	b	20003da0 <inflate_codes+0x344>
20003d78:	e5951000 	ldr	r1, [r5]
20003d7c:	e595c008 	ldr	ip, [r5, #8]
20003d80:	e0611000 	rsb	r1, r1, r0
20003d84:	e5848024 	str	r8, [r4, #36]	; 0x24
20003d88:	e5847020 	str	r7, [r4, #32]
20003d8c:	e08c1001 	add	r1, ip, r1
20003d90:	e585a004 	str	sl, [r5, #4]
20003d94:	e5851008 	str	r1, [r5, #8]
20003d98:	e5850000 	str	r0, [r5]
20003d9c:	eaffffd6 	b	20003cfc <inflate_codes+0x2a0>
20003da0:	e157000b 	cmp	r7, fp
20003da4:	e1a09000 	mov	r9, r0
20003da8:	3affffea 	bcc	20003d58 <inflate_codes+0x2fc>
20003dac:	e59fc440 	ldr	ip, [pc, #1088]	; 200041f4 <inflate_codes+0x798>
20003db0:	e58d000c 	str	r0, [sp, #12]
20003db4:	e5960008 	ldr	r0, [r6, #8]
20003db8:	e79cc10b 	ldr	ip, [ip, fp, lsl #2]
20003dbc:	e008c00c 	and	ip, r8, ip
20003dc0:	e58dc014 	str	ip, [sp, #20]
20003dc4:	e080b18c 	add	fp, r0, ip, lsl #3
20003dc8:	e5dbc001 	ldrb	ip, [fp, #1]
20003dcc:	e1a08c38 	lsr	r8, r8, ip
20003dd0:	e06c7007 	rsb	r7, ip, r7
20003dd4:	e59dc014 	ldr	ip, [sp, #20]
20003dd8:	e7d0c18c 	ldrb	ip, [r0, ip, lsl #3]
20003ddc:	e31c0010 	tst	ip, #16
20003de0:	e58dc014 	str	ip, [sp, #20]
20003de4:	0a000005 	beq	20003e00 <inflate_codes+0x3a4>
20003de8:	e20cc00f 	and	ip, ip, #15
20003dec:	e586c008 	str	ip, [r6, #8]
20003df0:	e59b0004 	ldr	r0, [fp, #4]
20003df4:	e586000c 	str	r0, [r6, #12]
20003df8:	e3a00004 	mov	r0, #4
20003dfc:	ea00007f 	b	20004000 <inflate_codes+0x5a4>
20003e00:	e59d0014 	ldr	r0, [sp, #20]
20003e04:	e3100040 	tst	r0, #64	; 0x40
20003e08:	1a000003 	bne	20003e1c <inflate_codes+0x3c0>
20003e0c:	e586000c 	str	r0, [r6, #12]
20003e10:	e59b0004 	ldr	r0, [fp, #4]
20003e14:	e5860008 	str	r0, [r6, #8]
20003e18:	eaffff1e 	b	20003a98 <inflate_codes+0x3c>
20003e1c:	e3a02009 	mov	r2, #9
20003e20:	e5c62000 	strb	r2, [r6]
20003e24:	e59f23d0 	ldr	r2, [pc, #976]	; 200041fc <inflate_codes+0x7a0>
20003e28:	e59d000c 	ldr	r0, [sp, #12]
20003e2c:	e5951008 	ldr	r1, [r5, #8]
20003e30:	e5852018 	str	r2, [r5, #24]
20003e34:	e5952000 	ldr	r2, [r5]
20003e38:	e5848024 	str	r8, [r4, #36]	; 0x24
20003e3c:	e0622000 	rsb	r2, r2, r0
20003e40:	e5847020 	str	r7, [r4, #32]
20003e44:	e0812002 	add	r2, r1, r2
20003e48:	e585a004 	str	sl, [r5, #4]
20003e4c:	e5852008 	str	r2, [r5, #8]
20003e50:	e5850000 	str	r0, [r5]
20003e54:	ea0000d2 	b	200041a4 <inflate_codes+0x748>
20003e58:	e5960008 	ldr	r0, [r6, #8]
